(lp1
ccopy_reg
_reconstructor
p2
(cstructures
System
p3
c__builtin__
object
p4
NtRp5
(dp6
S'xlo'
p7
F-500
sS'xz'
p8
F0
sS'xhi'
p9
F68100
sS'yhi'
p10
F50
sS'name'
p11
S'training_set'
p12
sS'bonds'
p13
(lp14
sS'zlo'
p15
F-50
sS'zhi'
p16
F50
sS'atoms'
p17
(lp18
g2
(cstructures
Atom
p19
g4
NtRp20
(dp21
S'index'
p22
I1
sS'fx'
p23
F9.6891195519362912e-06
sS'fy'
p24
F2.9834567118677896e-06
sS'fz'
p25
F-3.5099490727856352e-07
sS'molecule_index'
p26
I1
sS'element'
p27
S'Cs'
p28
sS'type_index'
p29
I352
sS'y'
F3.093521
sS'x'
F2.8033429999999999
sS'z'
F2.5038079999999998
sS'type'
p30
g2
(cstructures
Struct
p31
g4
NtRp32
(dp33
S'bond_count'
p34
I0
sS'style'
p35
S'lj/cut'
p36
sg22
I352
sS'notes'
p37
S'Cesium Ion Cs+'
p38
sS'vdw_r'
p39
F6.2000000000000002
sg27
I55
sS'vdw_e'
p40
F0.01
sS'charge'
p41
F1
sS'mass'
p42
F132.905
sS'index2'
p43
I72
sS'element_name'
p44
S'Cs'
p45
sbsS'bonded'
p46
(lp47
sbag2
(g19
g4
NtRp48
(dp49
g22
I2
sg23
F-5.1878470248098499e-06
sg24
F-3.0474895665740144e-06
sg25
F-4.7479175971059732e-06
sg26
I2
sg27
S'Cs'
p50
sg29
I352
sS'y'
F3.252548
sS'x'
F1002.853422
sS'z'
F2.4675699999999998
sg30
g2
(g31
g4
NtRp51
(dp52
g34
I0
sg35
g36
sg22
I352
sg37
S'Cesium Ion Cs+'
p53
sg39
F6.2000000000000002
sg27
I55
sg40
F0.01
sg41
F1
sg42
F132.905
sg43
I72
sg44
S'Cs'
p54
sbsg46
(lp55
sbag2
(g19
g4
NtRp56
(dp57
g22
I3
sg23
F-8.6966103039898127e-06
sg24
F-2.6621066447309969e-06
sg25
F-8.9254684698842823e-06
sg26
I3
sg27
S'Cs'
p58
sg29
I352
sS'y'
F3.2160410000000001
sS'x'
F2002.662626
sS'z'
F2.5145810000000002
sg30
g2
(g31
g4
NtRp59
(dp60
g34
I0
sg35
g36
sg22
I352
sg37
S'Cesium Ion Cs+'
p61
sg39
F6.2000000000000002
sg27
I55
sg40
F0.01
sg41
F1
sg42
F132.905
sg43
I72
sg44
S'Cs'
p62
sbsg46
(lp63
sbag2
(g19
g4
NtRp64
(dp65
g22
I4
sg23
F1.2344111435033265e-06
sg24
F2.4344342724421988e-06
sg25
F6.9297778315402883e-06
sg26
I4
sg27
S'Cs'
p66
sg29
I352
sS'y'
F3.2665410000000001
sS'x'
F3002.8546000000001
sS'z'
F2.4970850000000002
sg30
g2
(g31
g4
NtRp67
(dp68
g34
I0
sg35
g36
sg22
I352
sg37
S'Cesium Ion Cs+'
p69
sg39
F6.2000000000000002
sg27
I55
sg40
F0.01
sg41
F1
sg42
F132.905
sg43
I72
sg44
S'Cs'
p70
sbsg46
(lp71
sbag2
(g19
g4
NtRp72
(dp73
g22
I5
sg23
F-1.2880090144796476e-05
sg24
F-8.9290258507012949e-06
sg25
F-2.9028227466821738e-06
sg26
I5
sg27
S'Cs'
p74
sg29
I352
sS'y'
F3.0996869999999999
sS'x'
F4002.663931
sS'z'
F2.5423840000000002
sg30
g2
(g31
g4
NtRp75
(dp76
g34
I0
sg35
g36
sg22
I352
sg37
S'Cesium Ion Cs+'
p77
sg39
F6.2000000000000002
sg27
I55
sg40
F0.01
sg41
F1
sg42
F132.905
sg43
I72
sg44
S'Cs'
p78
sbsg46
(lp79
sbag2
(g19
g4
NtRp80
(dp81
g22
I6
sg23
F2.1368000774188224e-06
sg24
F2.2198056298157803e-06
sg25
F1.8747396905655705e-06
sg26
I6
sg27
S'Cs'
p82
sg29
I352
sS'y'
F3.0948220000000002
sS'x'
F5002.7893830000003
sS'z'
F2.5325479999999998
sg30
g2
(g31
g4
NtRp83
(dp84
g34
I0
sg35
g36
sg22
I352
sg37
S'Cesium Ion Cs+'
p85
sg39
F6.2000000000000002
sg27
I55
sg40
F0.01
sg41
F1
sg42
F132.905
sg43
I72
sg44
S'Cs'
p86
sbsg46
(lp87
sbag2
(g19
g4
NtRp88
(dp89
g22
I7
sg23
F4.043556195337505e-07
sg24
F-3.0972928980121886e-06
sg25
F-4.4194527683351561e-06
sg26
I7
sg27
S'Cs'
p90
sg29
I352
sS'y'
F3.1900339999999998
sS'x'
F6002.8186539999997
sS'z'
F2.2864200000000001
sg30
g2
(g31
g4
NtRp91
(dp92
g34
I0
sg35
g36
sg22
I352
sg37
S'Cesium Ion Cs+'
p93
sg39
F6.2000000000000002
sg27
I55
sg40
F0.01
sg41
F1
sg42
F132.905
sg43
I72
sg44
S'Cs'
p94
sbsg46
(lp95
sbag2
(g19
g4
NtRp96
(dp97
g22
I8
sg23
F4.8498958471936648e-07
sg24
F-3.5063916919686229e-06
sg25
F-5.4688801093538345e-06
sg26
I8
sg27
S'Cs'
p98
sg29
I352
sS'y'
F3.096473
sS'x'
F7002.6916950000004
sS'z'
F2.3722430000000001
sg30
g2
(g31
g4
NtRp99
(dp100
g34
I0
sg35
g36
sg22
I352
sg37
S'Cesium Ion Cs+'
p101
sg39
F6.2000000000000002
sg27
I55
sg40
F0.01
sg41
F1
sg42
F132.905
sg43
I72
sg44
S'Cs'
p102
sbsg46
(lp103
sbag2
(g19
g4
NtRp104
(dp105
g22
I9
sg23
F4.5581906201986429e-06
sg24
F-3.0000578223471814e-06
sg25
F-5.3420001935470554e-06
sg26
I9
sg27
S'Cs'
p106
sg29
I352
sS'y'
F3.19435
sS'x'
F8002.7254819999998
sS'z'
F2.3307920000000002
sg30
g2
(g31
g4
NtRp107
(dp108
g34
I0
sg35
g36
sg22
I352
sg37
S'Cesium Ion Cs+'
p109
sg39
F6.2000000000000002
sg27
I55
sg40
F0.01
sg41
F1
sg42
F132.905
sg43
I72
sg44
S'Cs'
p110
sbsg46
(lp111
sbag2
(g19
g4
NtRp112
(dp113
g22
I10
sg23
F6.2017005576584034e-06
sg24
F4.9566172717040381e-07
sg25
F2.0822535715579645e-06
sg26
I10
sg27
S'Cs'
p114
sg29
I352
sS'y'
F3.0313469999999998
sS'x'
F9002.5593559999998
sS'z'
F2.2474400000000001
sg30
g2
(g31
g4
NtRp115
(dp116
g34
I0
sg35
g36
sg22
I352
sg37
S'Cesium Ion Cs+'
p117
sg39
F6.2000000000000002
sg27
I55
sg40
F0.01
sg41
F1
sg42
F132.905
sg43
I72
sg44
S'Cs'
p118
sbsg46
(lp119
sbag2
(g19
g4
NtRp120
(dp121
g22
I11
sg23
F6.2017005576584034e-06
sg24
F4.9566172717040381e-07
sg25
F2.0822535715579645e-06
sg26
I11
sg27
S'Cs'
p122
sg29
I352
sS'y'
F3.0313469999999998
sS'x'
F10002.559356
sS'z'
F2.2474400000000001
sg30
g2
(g31
g4
NtRp123
(dp124
g34
I0
sg35
g36
sg22
I352
sg37
S'Cesium Ion Cs+'
p125
sg39
F6.2000000000000002
sg27
I55
sg40
F0.01
sg41
F1
sg42
F132.905
sg43
I72
sg44
S'Cs'
p126
sbsg46
(lp127
sbag2
(g19
g4
NtRp128
(dp129
g22
I12
sg23
F5.5945742315549404e-06
sg24
F2.9158664763445529e-06
sg25
F5.9657276301299077e-06
sg26
I12
sg27
S'Cs'
p130
sg29
I352
sS'y'
F3.0603289999999999
sS'x'
F11002.839478
sS'z'
F2.3665910000000001
sg30
g2
(g31
g4
NtRp131
(dp132
g34
I0
sg35
g36
sg22
I352
sg37
S'Cesium Ion Cs+'
p133
sg39
F6.2000000000000002
sg27
I55
sg40
F0.01
sg41
F1
sg42
F132.905
sg43
I72
sg44
S'Cs'
p134
sbsg46
(lp135
sbag2
(g19
g4
NtRp136
(dp137
g22
I13
sg23
F-0.523020703492174
sg24
F-0.60408069467546732
sg25
F-0.44329702699747442
sg26
I13
sg27
S'Pb'
p138
sg29
I356
sS'y'
F0.42779699999999998
sS'x'
F12000.408418999999
sS'z'
F0.43427300000000002
sg30
g2
(g31
g4
NtRp139
(dp140
g34
I0
sg35
g36
sg22
I356
sg37
S'Barium Ion Ba+2'
p141
sg39
F3.8166099999999998
sg27
I56
sg40
F0.047095999999999999
sg41
F2
sg42
F137.33000000000001
sg43
I76
sg44
S'Ba'
p142
sbsg46
(lp143
sbag2
(g19
g4
NtRp144
(dp145
g22
I14
sg23
F0.23282398027522491
sg24
F-0.10194837283200227
sg25
F-0.093688161848152249
sg26
I13
sg27
S'Cl'
p146
sg29
I344
sS'y'
F0.343918
sS'x'
F12002.962167
sS'z'
F0.064477999999999994
sg30
g2
(g31
g4
NtRp147
(dp148
g34
I0
sg35
g36
sg22
I344
sg37
S'Chloride Ion Cl-'
p149
sg39
F4.0199999999999996
sg27
I17
sg40
F0.70999999999999996
sg41
F-1
sg42
F35.453000000000003
sg43
I21
sg44
S'Cl'
p150
sbsg46
(lp151
sbag2
(g19
g4
NtRp152
(dp153
g22
I15
sg23
F-0.097982624855688052
sg24
F0.21915451207030778
sg25
F-0.10435553503730764
sg26
I13
sg27
S'Cl'
p154
sg29
I344
sS'y'
F2.9169700000000001
sS'x'
F11999.954147
sS'z'
F-0.07954
sg30
g147
sg46
(lp155
sbag2
(g19
g4
NtRp156
(dp157
g22
I16
sg23
F-0.073766995283987224
sg24
F-0.067386468750038411
sg25
F0.24929670250934324
sg26
I13
sg27
S'Cl'
p158
sg29
I344
sS'y'
F0.47215800000000002
sS'x'
F12000.322410000001
sS'z'
F3.01416
sg30
g147
sg46
(lp159
sbag2
(g19
g4
NtRp160
(dp161
g22
I17
sg23
F6.1306790967140659
sg24
F11.975518781465615
sg25
F2.1666948200056066
sg26
I14
sg27
S'Pb'
p162
sg29
I356
sS'y'
F0.330785
sS'x'
F13000.747111000001
sS'z'
F0.74954500000000002
sg30
g2
(g31
g4
NtRp163
(dp164
g34
I0
sg35
g36
sg22
I356
sg37
S'Barium Ion Ba+2'
p165
sg39
F3.8166099999999998
sg27
I56
sg40
F0.047095999999999999
sg41
F2
sg42
F137.33000000000001
sg43
I76
sg44
S'Ba'
p166
sbsg46
(lp167
sbag2
(g19
g4
NtRp168
(dp169
g22
I18
sg23
F-8.1280888049498685
sg24
F-3.6892972109187046
sg25
F-4.9254815510487626
sg26
I14
sg27
S'Cl'
p170
sg29
I344
sS'y'
F1.007253
sS'x'
F13002.534351
sS'z'
F2.5807380000000002
sg30
g2
(g31
g4
NtRp171
(dp172
g34
I0
sg35
g36
sg22
I344
sg37
S'Chloride Ion Cl-'
p173
sg39
F4.0199999999999996
sg27
I17
sg40
F0.70999999999999996
sg41
F-1
sg42
F35.453000000000003
sg43
I21
sg44
S'Cl'
p174
sbsg46
(lp175
sbag2
(g19
g4
NtRp176
(dp177
g22
I19
sg23
F-4.7688491618004205
sg24
F-6.0059024052387624
sg25
F4.2536847761320686
sg26
I14
sg27
S'Cl'
p178
sg29
I344
sS'y'
F1.992192
sS'x'
F13001.670843
sS'z'
F-1.064694
sg30
g171
sg46
(lp179
sbag2
(g19
g4
NtRp180
(dp181
g22
I20
sg23
F6.7136240128776992
sg24
F-3.0032261786701877
sg25
F-1.6795902443248174
sg26
I14
sg27
S'Cl'
p182
sg29
I344
sS'y'
F1.5131509999999999
sS'x'
F12998.517934
sS'z'
F1.512116
sg30
g171
sg46
(lp183
sbag2
(g19
g4
NtRp184
(dp185
g22
I21
sg23
F9.2460499376223062
sg24
F-20.572652134170013
sg25
F14.990540881558521
sg26
I15
sg27
S'Pb'
p186
sg29
I356
sS'y'
F0.76062700000000005
sS'x'
F14001.361951999999
sS'z'
F0.77932400000000002
sg30
g2
(g31
g4
NtRp187
(dp188
g34
I0
sg35
g36
sg22
I356
sg37
S'Barium Ion Ba+2'
p189
sg39
F3.8166099999999998
sg27
I56
sg40
F0.047095999999999999
sg41
F2
sg42
F137.33000000000001
sg43
I76
sg44
S'Ba'
p190
sbsg46
(lp191
sbag2
(g19
g4
NtRp192
(dp193
g22
I22
sg23
F-6.347748925521719
sg24
F-1.2066595971646694
sg25
F-3.0006003620529644
sg26
I15
sg27
S'Cl'
p194
sg29
I344
sS'y'
F-0.26606200000000002
sS'x'
F13999.109597000001
sS'z'
F0.165377
sg30
g2
(g31
g4
NtRp195
(dp196
g34
I0
sg35
g36
sg22
I344
sg37
S'Chloride Ion Cl-'
p197
sg39
F4.0199999999999996
sg27
I17
sg40
F0.70999999999999996
sg41
F-1
sg42
F35.453000000000003
sg43
I21
sg44
S'Cl'
p198
sbsg46
(lp199
sbag2
(g19
g4
NtRp200
(dp201
g22
I23
sg23
F1.1272197368121064
sg24
F0.44660327332991628
sg25
F-3.9692697738366958
sg26
I15
sg27
S'Cl'
p202
sg29
I344
sS'y'
F1.1891510000000001
sS'x'
F14000.895595
sS'z'
F3.3288319999999998
sg30
g195
sg46
(lp203
sbag2
(g19
g4
NtRp204
(dp205
g22
I24
sg23
F-3.3165250594051772
sg24
F20.77197638617135
sg25
F-8.154678845107485
sg26
I15
sg27
S'Cl'
p206
sg29
I344
sS'y'
F3.0483440000000002
sS'x'
F14001.211278999999
sS'z'
F-0.14433299999999999
sg30
g195
sg46
(lp207
sbag2
(g19
g4
NtRp208
(dp209
g22
I25
sg23
F-11.908308023612065
sg24
F1.5137578789442598
sg25
F20.366831412293347
sg26
I16
sg27
S'Pb'
p210
sg29
I356
sS'y'
F1.4470609999999999
sS'x'
F15001.087774
sS'z'
F0.63206200000000001
sg30
g2
(g31
g4
NtRp211
(dp212
g34
I0
sg35
g36
sg22
I356
sg37
S'Barium Ion Ba+2'
p213
sg39
F3.8166099999999998
sg27
I56
sg40
F0.047095999999999999
sg41
F2
sg42
F137.33000000000001
sg43
I76
sg44
S'Ba'
p214
sbsg46
(lp215
sbag2
(g19
g4
NtRp216
(dp217
g22
I26
sg23
F6.733541235492333
sg24
F-7.9645005112794722
sg25
F-5.0382708604941877
sg26
I16
sg27
S'Cl'
p218
sg29
I344
sS'y'
F-0.29819000000000001
sS'x'
F15002.701021000001
sS'z'
F-0.173375
sg30
g2
(g31
g4
NtRp219
(dp220
g34
I0
sg35
g36
sg22
I344
sg37
S'Chloride Ion Cl-'
p221
sg39
F4.0199999999999996
sg27
I17
sg40
F0.70999999999999996
sg41
F-1
sg42
F35.453000000000003
sg43
I21
sg44
S'Cl'
p222
sbsg46
(lp223
sbag2
(g19
g4
NtRp224
(dp225
g22
I27
sg23
F3.6271422003107054
sg24
F6.6559328985823756
sg25
F-12.69368365204541
sg26
I16
sg27
S'Cl'
p226
sg29
I344
sS'y'
F0.54622099999999996
sS'x'
F15000.751194
sS'z'
F3.1597529999999998
sg30
g219
sg46
(lp227
sbag2
(g19
g4
NtRp228
(dp229
g22
I28
sg23
F1.6973003077984388
sg24
F0.65262246741133023
sg25
F-2.7444211249151249
sg26
I16
sg27
S'Cl'
p230
sg29
I344
sS'y'
F0.54670200000000002
sS'x'
F14998.812862999999
sS'z'
F-0.18879499999999999
sg30
g219
sg46
(lp231
sbag2
(g19
g4
NtRp232
(dp233
g22
I29
sg23
F11.143577846848816
sg24
F-22.972860288448743
sg25
F-5.1402216393014166
sg26
I17
sg27
S'Pb'
p234
sg29
I356
sS'y'
F0.84802699999999998
sS'x'
F16001.216509
sS'z'
F1.1881029999999999
sg30
g2
(g31
g4
NtRp235
(dp236
g34
I0
sg35
g36
sg22
I356
sg37
S'Barium Ion Ba+2'
p237
sg39
F3.8166099999999998
sg27
I56
sg40
F0.047095999999999999
sg41
F2
sg42
F137.33000000000001
sg43
I76
sg44
S'Ba'
p238
sbsg46
(lp239
sbag2
(g19
g4
NtRp240
(dp241
g22
I30
sg23
F0.61362892653173295
sg24
F10.438174674408641
sg25
F-5.8486826260130904
sg26
I17
sg27
S'Cl'
p242
sg29
I344
sS'y'
F3.0687549999999999
sS'x'
F16001.770612
sS'z'
F0.127558
sg30
g2
(g31
g4
NtRp243
(dp244
g34
I0
sg35
g36
sg22
I344
sg37
S'Chloride Ion Cl-'
p245
sg39
F4.0199999999999996
sg27
I17
sg40
F0.70999999999999996
sg41
F-1
sg42
F35.453000000000003
sg43
I21
sg44
S'Cl'
p246
sbsg46
(lp247
sbag2
(g19
g4
NtRp248
(dp249
g22
I31
sg23
F2.2998444783929308
sg24
F8.5978035881519901
sg25
F8.6074009581094817
sg26
I17
sg27
S'Cl'
p250
sg29
I344
sS'y'
F-0.85550800000000005
sS'x'
F16000.946297
sS'z'
F-0.89955200000000002
sg30
g243
sg46
(lp251
sbag2
(g19
g4
NtRp252
(dp253
g22
I32
sg23
F-13.45694094389891
sg24
F3.6190114317426443
sg25
F3.0013947987086071
sg26
I17
sg27
S'Cl'
p254
sg29
I344
sS'y'
F1.0564169999999999
sS'x'
F15998.785162
sS'z'
F1.7401420000000001
sg30
g243
sg46
(lp255
sbag2
(g19
g4
NtRp256
(dp257
g22
I33
sg23
F18.158211125729
sg24
F22.182330385179153
sg25
F15.250883486291826
sg26
I18
sg27
S'Pb'
p258
sg29
I356
sS'y'
F0.28872999999999999
sS'x'
F17000.296160000002
sS'z'
F0.34003299999999997
sg30
g2
(g31
g4
NtRp259
(dp260
g34
I0
sg35
g36
sg22
I356
sg37
S'Barium Ion Ba+2'
p261
sg39
F3.8166099999999998
sg27
I56
sg40
F0.047095999999999999
sg41
F2
sg42
F137.33000000000001
sg43
I76
sg44
S'Ba'
p262
sbsg46
(lp263
sbag2
(g19
g4
NtRp264
(dp265
g22
I34
sg23
F-10.948908581799712
sg24
F-5.3132693121274119
sg25
F-2.7882859936755451
sg26
I18
sg27
S'Cl'
p266
sg29
I344
sS'y'
F0.429641
sS'x'
F17002.919739000001
sS'z'
F0.132078
sg30
g2
(g31
g4
NtRp267
(dp268
g34
I0
sg35
g36
sg22
I344
sg37
S'Chloride Ion Cl-'
p269
sg39
F4.0199999999999996
sg27
I17
sg40
F0.70999999999999996
sg41
F-1
sg42
F35.453000000000003
sg43
I21
sg44
S'Cl'
p270
sbsg46
(lp271
sbag2
(g19
g4
NtRp272
(dp273
g22
I35
sg23
F-3.4663680592985409
sg24
F-11.650604975286496
sg25
F-2.552330422608057
sg26
I18
sg27
S'Cl'
p274
sg29
I344
sS'y'
F2.8890069999999999
sS'x'
F17000.04234
sS'z'
F0.00091600000000000004
sg30
g267
sg46
(lp275
sbag2
(g19
g4
NtRp276
(dp277
g22
I36
sg23
F-4.215349867709631
sg24
F-5.6564744412045407
sg25
F-10.280724563075621
sg26
I18
sg27
S'Cl'
p278
sg29
I344
sS'y'
F0.55346499999999998
sS'x'
F17000.388905
sS'z'
F2.9603440000000001
sg30
g267
sg46
(lp279
sbag2
(g19
g4
NtRp280
(dp281
g22
I37
sg23
F21.293497814917082
sg24
F-30.460910011599232
sg25
F18.916669668570901
sg26
I19
sg27
S'Pb'
p282
sg29
I356
sS'y'
F0.93635400000000002
sS'x'
F18000.163902
sS'z'
F0.67796000000000001
sg30
g2
(g31
g4
NtRp283
(dp284
g34
I0
sg35
g36
sg22
I356
sg37
S'Barium Ion Ba+2'
p285
sg39
F3.8166099999999998
sg27
I56
sg40
F0.047095999999999999
sg41
F2
sg42
F137.33000000000001
sg43
I76
sg44
S'Ba'
p286
sbsg46
(lp287
sbag2
(g19
g4
NtRp288
(dp289
g22
I38
sg23
F-17.865119440391183
sg24
F12.269438947593494
sg25
F1.988304870696155
sg26
I19
sg27
S'Cl'
p290
sg29
I344
sS'y'
F-1.076973
sS'x'
F18001.925547999999
sS'z'
F-0.013798
sg30
g2
(g31
g4
NtRp291
(dp292
g34
I0
sg35
g36
sg22
I344
sg37
S'Chloride Ion Cl-'
p293
sg39
F4.0199999999999996
sg27
I17
sg40
F0.70999999999999996
sg41
F-1
sg42
F35.453000000000003
sg43
I21
sg44
S'Cl'
p294
sbsg46
(lp295
sbag2
(g19
g4
NtRp296
(dp297
g22
I39
sg23
F6.7352243580509832
sg24
F15.421759012904605
sg25
F-7.4725445302362292
sg26
I19
sg27
S'Cl'
p298
sg29
I344
sS'y'
F2.64229
sS'x'
F18001.641617000001
sS'z'
F-0.29861799999999999
sg30
g291
sg46
(lp299
sbag2
(g19
g4
NtRp300
(dp301
g22
I40
sg23
F-11.003184788379743
sg24
F2.6329586390662727
sg25
F-13.496516897980076
sg26
I19
sg27
S'Cl'
p302
sg29
I344
sS'y'
F0.95920300000000003
sS'x'
F18001.208371000001
sS'z'
F3.1697959999999998
sg30
g291
sg46
(lp303
sbag2
(g19
g4
NtRp304
(dp305
g22
I41
sg23
F-0.72319985102192941
sg24
F19.091159951810095
sg25
F-38.892213037302291
sg26
I20
sg27
S'Pb'
p306
sg29
I356
sS'y'
F0.39965200000000001
sS'x'
F19000.741736
sS'z'
F1.2871269999999999
sg30
g2
(g31
g4
NtRp307
(dp308
g34
I0
sg35
g36
sg22
I356
sg37
S'Barium Ion Ba+2'
p309
sg39
F3.8166099999999998
sg27
I56
sg40
F0.047095999999999999
sg41
F2
sg42
F137.33000000000001
sg43
I76
sg44
S'Ba'
p310
sbsg46
(lp311
sbag2
(g19
g4
NtRp312
(dp313
g22
I42
sg23
F-8.4017351577958124
sg24
F-2.8564598127786383
sg25
F23.745270084373253
sg26
I20
sg27
S'Cl'
p314
sg29
I344
sS'y'
F0.135687
sS'x'
F19001.976804999998
sS'z'
F-1.224275
sg30
g2
(g31
g4
NtRp315
(dp316
g34
I0
sg35
g36
sg22
I344
sg37
S'Chloride Ion Cl-'
p317
sg39
F4.0199999999999996
sg27
I17
sg40
F0.70999999999999996
sg41
F-1
sg42
F35.453000000000003
sg43
I21
sg44
S'Cl'
p318
sbsg46
(lp319
sbag2
(g19
g4
NtRp320
(dp321
g22
I43
sg23
F9.453738190750208
sg24
F-11.682249527092727
sg25
F11.706128175465981
sg26
I20
sg27
S'Cl'
p322
sg29
I344
sS'y'
F1.715163
sS'x'
F18998.706965000001
sS'z'
F0.124774
sg30
g315
sg46
(lp323
sbag2
(g19
g4
NtRp324
(dp325
g22
I44
sg23
F-0.35034824422205973
sg24
F-5.2381203016692677
sg25
F3.7550634267012715
sg26
I20
sg27
S'Cl'
p326
sg29
I344
sS'y'
F2.574249
sS'x'
F19001.952286
sS'z'
F1.894733
sg30
g315
sg46
(lp327
sbag2
(g19
g4
NtRp328
(dp329
g22
I45
sg23
F11.69537695243938
sg24
F-38.459701177859166
sg25
F18.039687389554167
sg26
I21
sg27
S'Pb'
p330
sg29
I356
sS'y'
F1.331609
sS'x'
F20000.448374
sS'z'
F0.37651000000000001
sg30
g2
(g31
g4
NtRp331
(dp332
g34
I0
sg35
g36
sg22
I356
sg37
S'Barium Ion Ba+2'
p333
sg39
F3.8166099999999998
sg27
I56
sg40
F0.047095999999999999
sg41
F2
sg42
F137.33000000000001
sg43
I76
sg44
S'Ba'
p334
sbsg46
(lp335
sbag2
(g19
g4
NtRp336
(dp337
g22
I46
sg23
F-3.4360956497489048
sg24
F6.2499167707598282
sg25
F-3.8156778850874171
sg26
I21
sg27
S'Cl'
p338
sg29
I344
sS'y'
F1.2871109999999999
sS'x'
F20003.006259000002
sS'z'
F0.394839
sg30
g2
(g31
g4
NtRp339
(dp340
g34
I0
sg35
g36
sg22
I344
sg37
S'Chloride Ion Cl-'
p341
sg39
F4.0199999999999996
sg27
I17
sg40
F0.70999999999999996
sg41
F-1
sg42
F35.453000000000003
sg43
I21
sg44
S'Cl'
p342
sbsg46
(lp343
sbag2
(g19
g4
NtRp344
(dp345
g22
I47
sg23
F-3.4755948960275127
sg24
F6.0546132424979549
sg25
F-12.195665252575635
sg26
I21
sg27
S'Cl'
p346
sg29
I344
sS'y'
F1.139591
sS'x'
F20000.321217000001
sS'z'
F2.9960209999999998
sg30
g339
sg46
(lp347
sbag2
(g19
g4
NtRp348
(dp349
g22
I48
sg23
F-5.0492533014159573
sg24
F26.547317958706788
sg25
F-2.5666897570737066
sg26
I21
sg27
S'Cl'
p350
sg29
I344
sS'y'
F-1.5237529999999999
sS'x'
F20000.456152999999
sS'z'
F0.13875299999999999
sg30
g339
sg46
(lp351
sbag2
(g19
g4
NtRp352
(dp353
g22
I49
sg23
F-0.40720462029446486
sg24
F-0.54486640122040664
sg25
F-0.44008522438254988
sg26
I22
sg27
S'Pb'
p354
sg29
I356
sS'y'
F0.30095499999999997
sS'x'
F21000.304660999998
sS'z'
F0.345748
sg30
g2
(g31
g4
NtRp355
(dp356
g34
I0
sg35
g36
sg22
I356
sg37
S'Barium Ion Ba+2'
p357
sg39
F3.8166099999999998
sg27
I56
sg40
F0.047095999999999999
sg41
F2
sg42
F137.33000000000001
sg43
I76
sg44
S'Ba'
p358
sbsg46
(lp359
sbag2
(g19
g4
NtRp360
(dp361
g22
I50
sg23
F-0.01148112642263421
sg24
F-0.31355180813949129
sg25
F-0.32246813888385023
sg26
I22
sg27
S'Cl'
p362
sg29
I344
sS'y'
F0.438917
sS'x'
F21002.889561
sS'z'
F0.15013699999999999
sg30
g2
(g31
g4
NtRp363
(dp364
g34
I0
sg35
g36
sg22
I344
sg37
S'Chloride Ion Cl-'
p365
sg39
F4.0199999999999996
sg27
I17
sg40
F0.70999999999999996
sg41
F-1
sg42
F35.453000000000003
sg43
I21
sg44
S'Cl'
p366
sbsg46
(lp367
sbag2
(g19
g4
NtRp368
(dp369
g22
I51
sg23
F-0.28809793019617913
sg24
F-0.083282410302216003
sg25
F-0.25979690488755836
sg26
I22
sg27
S'Cl'
p370
sg29
I344
sS'y'
F2.8649830000000001
sS'x'
F21000.060204000001
sS'z'
F0.020178999999999999
sg30
g363
sg46
(lp371
sbag2
(g19
g4
NtRp372
(dp373
g22
I52
sg23
F-0.20230093901750731
sg24
F-0.27325730463606601
sg25
F-0.024023293848861035
sg26
I22
sg27
S'Cl'
p374
sg29
I344
sS'y'
F0.56421299999999996
sS'x'
F21000.404871999999
sS'z'
F2.9263690000000002
sg30
g363
sg46
(lp375
sbag2
(g19
g4
NtRp376
(dp377
g22
I53
sg23
F-0.41638267110291227
sg24
F-0.54170494265880431
sg25
F-0.4437051475117062
sg26
I22
sg27
S'Cs'
p378
sg29
I352
sS'y'
F3.0231240000000001
sS'x'
F21002.547201000001
sS'z'
F2.2383769999999998
sg30
g2
(g31
g4
NtRp379
(dp380
g34
I0
sg35
g36
sg22
I352
sg37
S'Cesium Ion Cs+'
p381
sg39
F6.2000000000000002
sg27
I55
sg40
F0.01
sg41
F1
sg42
F132.905
sg43
I72
sg44
S'Cs'
p382
sbsg46
(lp383
sbag2
(g19
g4
NtRp384
(dp385
g22
I54
sg23
F5.5779668838011842
sg24
F6.8517854848574835
sg25
F4.5548398911906709
sg26
I23
sg27
S'Pb'
p386
sg29
I356
sS'y'
F0.28872999999999999
sS'x'
F22000.296160000002
sS'z'
F0.34003299999999997
sg30
g2
(g31
g4
NtRp387
(dp388
g34
I0
sg35
g36
sg22
I356
sg37
S'Barium Ion Ba+2'
p389
sg39
F3.8166099999999998
sg27
I56
sg40
F0.047095999999999999
sg41
F2
sg42
F137.33000000000001
sg43
I76
sg44
S'Ba'
p390
sbsg46
(lp391
sbag2
(g19
g4
NtRp392
(dp393
g22
I55
sg23
F-6.6401820863095962
sg24
F0.12342022185279433
sg25
F0.99231056229888037
sg26
I23
sg27
S'Cl'
p394
sg29
I344
sS'y'
F0.429641
sS'x'
F22002.919739000001
sS'z'
F0.132078
sg30
g2
(g31
g4
NtRp395
(dp396
g34
I0
sg35
g36
sg22
I344
sg37
S'Chloride Ion Cl-'
p397
sg39
F4.0199999999999996
sg27
I17
sg40
F0.70999999999999996
sg41
F-1
sg42
F35.453000000000003
sg43
I21
sg44
S'Cl'
p398
sbsg46
(lp399
sbag2
(g19
g4
NtRp400
(dp401
g22
I56
sg23
F1.1858196883869729
sg24
F-6.4760253777311485
sg25
F1.4430593143419224
sg26
I23
sg27
S'Cl'
p402
sg29
I344
sS'y'
F2.8890069999999999
sS'x'
F22000.04234
sS'z'
F0.00091600000000000004
sg30
g395
sg46
(lp403
sbag2
(g19
g4
NtRp404
(dp405
g22
I57
sg23
F0.38895605355649399
sg24
F-0.10259411096949358
sg25
F-6.7947380015444141
sg26
I23
sg27
S'Cl'
p406
sg29
I344
sS'y'
F0.55346499999999998
sS'x'
F22000.388905
sS'z'
F2.9603440000000001
sg30
g395
sg46
(lp407
sbag2
(g19
g4
NtRp408
(dp409
g22
I58
sg23
F-1.7568293974393778
sg24
F-1.9775373465648587
sg25
F-1.4669279463165892
sg26
I23
sg27
S'Cs'
p410
sg29
I352
sS'y'
F3.0313469999999998
sS'x'
F22002.559356000002
sS'z'
F2.2474400000000001
sg30
g2
(g31
g4
NtRp411
(dp412
g34
I0
sg35
g36
sg22
I352
sg37
S'Cesium Ion Cs+'
p413
sg39
F6.2000000000000002
sg27
I55
sg40
F0.01
sg41
F1
sg42
F132.905
sg43
I72
sg44
S'Cs'
p414
sbsg46
(lp415
sbag2
(g19
g4
NtRp416
(dp417
g22
I59
sg23
F8.2860310988916197
sg24
F-8.8114354503018966
sg25
F-23.513888805817334
sg26
I24
sg27
S'Pb'
p418
sg29
I356
sS'y'
F2.3809439999999999
sS'x'
F23000.451003999999
sS'z'
F2.6681319999999999
sg30
g2
(g31
g4
NtRp419
(dp420
g34
I0
sg35
g36
sg22
I356
sg37
S'Barium Ion Ba+2'
p421
sg39
F3.8166099999999998
sg27
I56
sg40
F0.047095999999999999
sg41
F2
sg42
F137.33000000000001
sg43
I76
sg44
S'Ba'
p422
sbsg46
(lp423
sbag2
(g19
g4
NtRp424
(dp425
g22
I60
sg23
F-3.2376616666850424
sg24
F2.5798239888756576
sg25
F16.537055656672955
sg26
I24
sg27
S'Cl'
p426
sg29
I344
sS'y'
F3.079904
sS'x'
F23000.445352999999
sS'z'
F0.020048
sg30
g2
(g31
g4
NtRp427
(dp428
g34
I0
sg35
g36
sg22
I344
sg37
S'Chloride Ion Cl-'
p429
sg39
F4.0199999999999996
sg27
I17
sg40
F0.70999999999999996
sg41
F-1
sg42
F35.453000000000003
sg43
I21
sg44
S'Cl'
p430
sbsg46
(lp431
sbag2
(g19
g4
NtRp432
(dp433
g22
I61
sg23
F-7.9166408805447945
sg24
F0.68993364464018436
sg25
F-0.25183478225768274
sg26
I24
sg27
S'Cl'
p434
sg29
I344
sS'y'
F2.2536909999999999
sS'x'
F23003.057209999999
sS'z'
F2.667862
sg30
g427
sg46
(lp435
sbag2
(g19
g4
NtRp436
(dp437
g22
I62
sg23
F-5.6220208961280571
sg24
F6.5645749824372972
sg25
F11.71589679655021
sg26
I24
sg27
S'Cl'
p438
sg29
I344
sS'y'
F-0.122519
sS'x'
F23000.333869999999
sS'z'
F1.734747
sg30
g427
sg46
(lp439
sbag2
(g19
g4
NtRp440
(dp441
g22
I63
sg23
F9.1199867513909592
sg24
F-1.5222774882083179
sg25
F-5.1381859115277715
sg26
I24
sg27
S'Cs'
p442
sg29
I352
sS'y'
F0.70491899999999996
sS'x'
F23002.526897
sS'z'
F-0.35931999999999997
sg30
g2
(g31
g4
NtRp443
(dp444
g34
I0
sg35
g36
sg22
I352
sg37
S'Cesium Ion Cs+'
p445
sg39
F6.2000000000000002
sg27
I55
sg40
F0.01
sg41
F1
sg42
F132.905
sg43
I72
sg44
S'Cs'
p446
sbsg46
(lp447
sbag2
(g19
g4
NtRp448
(dp449
g22
I64
sg23
F-7.7966995150706513
sg24
F40.844902371751338
sg25
F18.662897623283207
sg26
I25
sg27
S'Pb'
p450
sg29
I356
sS'y'
F2.8216290000000002
sS'x'
F24000.048062999998
sS'z'
F1.121469
sg30
g2
(g31
g4
NtRp451
(dp452
g34
I0
sg35
g36
sg22
I356
sg37
S'Barium Ion Ba+2'
p453
sg39
F3.8166099999999998
sg27
I56
sg40
F0.047095999999999999
sg41
F2
sg42
F137.33000000000001
sg43
I76
sg44
S'Ba'
p454
sbsg46
(lp455
sbag2
(g19
g4
NtRp456
(dp457
g22
I65
sg23
F9.0648719741030757
sg24
F-29.345355898836871
sg25
F-18.41018215211459
sg26
I25
sg27
S'Cl'
p458
sg29
I344
sS'y'
F0.90581699999999998
sS'x'
F24000.199256
sS'z'
F-0.35703600000000002
sg30
g2
(g31
g4
NtRp459
(dp460
g34
I0
sg35
g36
sg22
I344
sg37
S'Chloride Ion Cl-'
p461
sg39
F4.0199999999999996
sg27
I17
sg40
F0.70999999999999996
sg41
F-1
sg42
F35.453000000000003
sg43
I21
sg44
S'Cl'
p462
sbsg46
(lp463
sbag2
(g19
g4
NtRp464
(dp465
g22
I66
sg23
F-1.8051274445291181
sg24
F-4.6426225530517193
sg25
F-3.7240075680595432
sg26
I25
sg27
S'Cl'
p466
sg29
I344
sS'y'
F3.6711119999999999
sS'x'
F24002.553972000002
sS'z'
F1.0515890000000001
sg30
g459
sg46
(lp467
sbag2
(g19
g4
NtRp468
(dp469
g22
I67
sg23
F0.35801561294958023
sg24
F-6.7800556663869287
sg25
F4.5188867891488682
sg26
I25
sg27
S'Cl'
p470
sg29
I344
sS'y'
F1.607165
sS'x'
F24000.619137000002
sS'z'
F3.3114110000000001
sg30
g459
sg46
(lp471
sbag2
(g19
g4
NtRp472
(dp473
g22
I68
sg23
F0.25126596655139122
sg24
F1.2760466479516752
sg25
F-0.019689808745349802
sg26
I25
sg27
S'Cs'
p474
sg29
I352
sS'y'
F0.41497800000000001
sS'x'
F24003.128887999999
sS'z'
F1.5080009999999999
sg30
g2
(g31
g4
NtRp475
(dp476
g34
I0
sg35
g36
sg22
I352
sg37
S'Cesium Ion Cs+'
p477
sg39
F6.2000000000000002
sg27
I55
sg40
F0.01
sg41
F1
sg42
F132.905
sg43
I72
sg44
S'Cs'
p478
sbsg46
(lp479
sbag2
(g19
g4
NtRp480
(dp481
g22
I69
sg23
F33.059763235618966
sg24
F-18.960280134799575
sg25
F27.035918845835795
sg26
I26
sg27
S'Pb'
p482
sg29
I356
sS'y'
F1.6194809999999999
sS'x'
F25003.096613999998
sS'z'
F0.73890400000000001
sg30
g2
(g31
g4
NtRp483
(dp484
g34
I0
sg35
g36
sg22
I356
sg37
S'Barium Ion Ba+2'
p485
sg39
F3.8166099999999998
sg27
I56
sg40
F0.047095999999999999
sg41
F2
sg42
F137.33000000000001
sg43
I76
sg44
S'Ba'
p486
sbsg46
(lp487
sbag2
(g19
g4
NtRp488
(dp489
g22
I70
sg23
F-4.7539590210567155
sg24
F1.8618669974012863
sg25
F-0.07363342156327643
sg26
I26
sg27
S'Cl'
p490
sg29
I344
sS'y'
F3.2209210000000001
sS'x'
F25002.441461999999
sS'z'
F2.660148
sg30
g2
(g31
g4
NtRp491
(dp492
g34
I0
sg35
g36
sg22
I344
sg37
S'Chloride Ion Cl-'
p493
sg39
F4.0199999999999996
sg27
I17
sg40
F0.70999999999999996
sg41
F-1
sg42
F35.453000000000003
sg43
I21
sg44
S'Cl'
p494
sbsg46
(lp495
sbag2
(g19
g4
NtRp496
(dp497
g22
I71
sg23
F-32.73240172257956
sg24
F10.683579607047347
sg25
F-25.122664478165579
sg26
I26
sg27
S'Cl'
p498
sg29
I344
sS'y'
F2.1637659999999999
sS'x'
F25001.215141000001
sS'z'
F-0.65605000000000002
sg30
g491
sg46
(lp499
sbag2
(g19
g4
NtRp500
(dp501
g22
I72
sg23
F0.96746734197502937
sg24
F7.812244177125085
sg25
F-4.708140141117398
sg26
I26
sg27
S'Cl'
p502
sg29
I344
sS'y'
F-0.38455099999999998
sS'x'
F25001.787236
sS'z'
F1.9552130000000001
sg30
g491
sg46
(lp503
sbag2
(g19
g4
NtRp504
(dp505
g22
I73
sg23
F4.5336368295638572
sg24
F-1.786188460136388
sg25
F1.7930738940302506
sg26
I26
sg27
S'Cs'
p506
sg29
I352
sS'y'
F1.9345870000000001
sS'x'
F24999.297124000001
sS'z'
F2.0623019999999999
sg30
g2
(g31
g4
NtRp507
(dp508
g34
I0
sg35
g36
sg22
I352
sg37
S'Cesium Ion Cs+'
p509
sg39
F6.2000000000000002
sg27
I55
sg40
F0.01
sg41
F1
sg42
F132.905
sg43
I72
sg44
S'Cs'
p510
sbsg46
(lp511
sbag2
(g19
g4
NtRp512
(dp513
g22
I74
sg23
F-12.499338147781842
sg24
F10.527203504556791
sg25
F-16.983723773940401
sg26
I27
sg27
S'Pb'
p514
sg29
I356
sS'y'
F-0.139516
sS'x'
F26001.997351000002
sS'z'
F1.2975939999999999
sg30
g2
(g31
g4
NtRp515
(dp516
g34
I0
sg35
g36
sg22
I356
sg37
S'Barium Ion Ba+2'
p517
sg39
F3.8166099999999998
sg27
I56
sg40
F0.047095999999999999
sg41
F2
sg42
F137.33000000000001
sg43
I76
sg44
S'Ba'
p518
sbsg46
(lp519
sbag2
(g19
g4
NtRp520
(dp521
g22
I75
sg23
F0.89656481850092973
sg24
F-1.3868685052476826
sg25
F1.2681013303887791
sg26
I27
sg27
S'Cl'
p522
sg29
I344
sS'y'
F1.7609900000000001
sS'x'
F26003.724375999998
sS'z'
F1.5486279999999999
sg30
g2
(g31
g4
NtRp523
(dp524
g34
I0
sg35
g36
sg22
I344
sg37
S'Chloride Ion Cl-'
p525
sg39
F4.0199999999999996
sg27
I17
sg40
F0.70999999999999996
sg41
F-1
sg42
F35.453000000000003
sg43
I21
sg44
S'Cl'
p526
sbsg46
(lp527
sbag2
(g19
g4
NtRp528
(dp529
g22
I76
sg23
F11.361854948727512
sg24
F-7.2145503316350732
sg25
F22.871360597387049
sg26
I27
sg27
S'Cl'
p530
sg29
I344
sS'y'
F1.2401709999999999
sS'x'
F26000.716837
sS'z'
F-0.86828499999999997
sg30
g523
sg46
(lp531
sbag2
(g19
g4
NtRp532
(dp533
g22
I77
sg23
F3.4453843007127469
sg24
F-0.00019456857219928559
sg25
F-3.0348016437693652
sg26
I27
sg27
S'Cl'
p534
sg29
I344
sS'y'
F0.86047700000000005
sS'x'
F26000.377818000001
sS'z'
F3.0642749999999999
sg30
g523
sg46
(lp535
sbag2
(g19
g4
NtRp536
(dp537
g22
I78
sg23
F-2.5556583760782443
sg24
F-2.1531549566702024
sg25
F-2.9726722640901531
sg26
I27
sg27
S'Cs'
p538
sg29
I352
sS'y'
F3.7847300000000001
sS'x'
F26001.122274000001
sS'z'
F1.49007
sg30
g2
(g31
g4
NtRp539
(dp540
g34
I0
sg35
g36
sg22
I352
sg37
S'Cesium Ion Cs+'
p541
sg39
F6.2000000000000002
sg27
I55
sg40
F0.01
sg41
F1
sg42
F132.905
sg43
I72
sg44
S'Cs'
p542
sbsg46
(lp543
sbag2
(g19
g4
NtRp544
(dp545
g22
I79
sg23
F1.2750938248441233
sg24
F11.842058531716541
sg25
F3.0696505134612821
sg26
I28
sg27
S'Pb'
p546
sg29
I356
sS'y'
F0.33178999999999997
sS'x'
F27000.396798999998
sS'z'
F0.41040399999999999
sg30
g2
(g31
g4
NtRp547
(dp548
g34
I0
sg35
g36
sg22
I356
sg37
S'Barium Ion Ba+2'
p549
sg39
F3.8166099999999998
sg27
I56
sg40
F0.047095999999999999
sg41
F2
sg42
F137.33000000000001
sg43
I76
sg44
S'Ba'
p550
sbsg46
(lp551
sbag2
(g19
g4
NtRp552
(dp553
g22
I80
sg23
F0.50180711083234819
sg24
F4.001954453990491
sg25
F1.8746993688398035
sg26
I28
sg27
S'Cl'
p554
sg29
I344
sS'y'
F0.12513099999999999
sS'x'
F27002.924175
sS'z'
F0.95467900000000006
sg30
g2
(g31
g4
NtRp555
(dp556
g34
I0
sg35
g36
sg22
I344
sg37
S'Chloride Ion Cl-'
p557
sg39
F4.0199999999999996
sg27
I17
sg40
F0.70999999999999996
sg41
F-1
sg42
F35.453000000000003
sg43
I21
sg44
S'Cl'
p558
sbsg46
(lp559
sbag2
(g19
g4
NtRp560
(dp561
g22
I81
sg23
F3.2140796149374067
sg24
F-6.1368459811856697
sg25
F6.7773585171695636
sg26
I28
sg27
S'Cl'
p562
sg29
I344
sS'y'
F2.7863570000000002
sS'x'
F27000.647926000001
sS'z'
F-0.53377699999999995
sg30
g555
sg46
(lp563
sbag2
(g19
g4
NtRp564
(dp565
g22
I82
sg23
F4.6527091020027385
sg24
F0.76566683394657453
sg25
F-3.3332142802784377
sg26
I28
sg27
S'Cl'
p566
sg29
I344
sS'y'
F1.2509399999999999
sS'x'
F26999.852488
sS'z'
F2.8062939999999998
sg30
g555
sg46
(lp567
sbag2
(g19
g4
NtRp568
(dp569
g22
I83
sg23
F-10.431581937065227
sg24
F-12.474867967454191
sg25
F-8.6518401375437612
sg26
I28
sg27
S'Cs'
p570
sg29
I352
sS'y'
F3.4267080000000001
sS'x'
F27002.832554000001
sS'z'
F2.5579329999999998
sg30
g2
(g31
g4
NtRp571
(dp572
g34
I0
sg35
g36
sg22
I352
sg37
S'Cesium Ion Cs+'
p573
sg39
F6.2000000000000002
sg27
I55
sg40
F0.01
sg41
F1
sg42
F132.905
sg43
I72
sg44
S'Cs'
p574
sbsg46
(lp575
sbag2
(g19
g4
NtRp576
(dp577
g22
I84
sg23
F13.772902768448917
sg24
F-15.091257663064214
sg25
F-10.791558979518502
sg26
I29
sg27
S'Pb'
p578
sg29
I356
sS'y'
F1.8282529999999999
sS'x'
F27999.658575000001
sS'z'
F1.860403
sg30
g2
(g31
g4
NtRp579
(dp580
g34
I0
sg35
g36
sg22
I356
sg37
S'Barium Ion Ba+2'
p581
sg39
F3.8166099999999998
sg27
I56
sg40
F0.047095999999999999
sg41
F2
sg42
F137.33000000000001
sg43
I76
sg44
S'Ba'
p582
sbsg46
(lp583
sbag2
(g19
g4
NtRp584
(dp585
g22
I85
sg23
F-1.2666697383697634
sg24
F7.1884279198579932
sg25
F22.551968997641524
sg26
I29
sg27
S'Cl'
p586
sg29
I344
sS'y'
F0.956515
sS'x'
F28000.497383000002
sS'z'
F-0.66109300000000004
sg30
g2
(g31
g4
NtRp587
(dp588
g34
I0
sg35
g36
sg22
I344
sg37
S'Chloride Ion Cl-'
p589
sg39
F4.0199999999999996
sg27
I17
sg40
F0.70999999999999996
sg41
F-1
sg42
F35.453000000000003
sg43
I21
sg44
S'Cl'
p590
sbsg46
(lp591
sbag2
(g19
g4
NtRp592
(dp593
g22
I86
sg23
F2.7241838269614815
sg24
F-6.2950840274679898
sg25
F1.5399490181329294
sg26
I29
sg27
S'Cl'
p594
sg29
I344
sS'y'
F3.9855049999999999
sS'x'
F28001.057325000002
sS'z'
F1.6351070000000001
sg30
g587
sg46
(lp595
sbag2
(g19
g4
NtRp596
(dp597
g22
I87
sg23
F-7.8062234346006196
sg24
F15.217037603520149
sg25
F-14.088237182487401
sg26
I29
sg27
S'Cl'
p598
sg29
I344
sS'y'
F0.25709399999999999
sS'x'
F28001.455771000001
sS'z'
F3.2550279999999998
sg30
g587
sg46
(lp599
sbag2
(g19
g4
NtRp600
(dp601
g22
I88
sg23
F-5.0821111074361811
sg24
F-1.1913647486207295
sg25
F0.28226100465329085
sg26
I29
sg27
S'Cs'
p602
sg29
I352
sS'y'
F1.6391610000000001
sS'x'
F28003.560454999999
sS'z'
F0.83450000000000002
sg30
g2
(g31
g4
NtRp603
(dp604
g34
I0
sg35
g36
sg22
I352
sg37
S'Cesium Ion Cs+'
p605
sg39
F6.2000000000000002
sg27
I55
sg40
F0.01
sg41
F1
sg42
F132.905
sg43
I72
sg44
S'Cs'
p606
sbsg46
(lp607
sbag2
(g19
g4
NtRp608
(dp609
g22
I89
sg23
F-0.83968626334492424
sg24
F5.997060122561904
sg25
F12.872940933486618
sg26
I30
sg27
S'Pb'
p610
sg29
I356
sS'y'
F0.31957799999999997
sS'x'
F29000.464135999999
sS'z'
F0.32862799999999998
sg30
g2
(g31
g4
NtRp611
(dp612
g34
I0
sg35
g36
sg22
I356
sg37
S'Barium Ion Ba+2'
p613
sg39
F3.8166099999999998
sg27
I56
sg40
F0.047095999999999999
sg41
F2
sg42
F137.33000000000001
sg43
I76
sg44
S'Ba'
p614
sbsg46
(lp615
sbag2
(g19
g4
NtRp616
(dp617
g22
I90
sg23
F2.230116143162483
sg24
F-0.22880001694763391
sg25
F-0.4463909676569634
sg26
I30
sg27
S'Cl'
p618
sg29
I344
sS'y'
F0.64720999999999995
sS'x'
F29003.041740000001
sS'z'
F0.68039899999999998
sg30
g2
(g31
g4
NtRp619
(dp620
g34
I0
sg35
g36
sg22
I344
sg37
S'Chloride Ion Cl-'
p621
sg39
F4.0199999999999996
sg27
I17
sg40
F0.70999999999999996
sg41
F-1
sg42
F35.453000000000003
sg43
I21
sg44
S'Cl'
p622
sbsg46
(lp623
sbag2
(g19
g4
NtRp624
(dp625
g22
I91
sg23
F3.1329329457989199
sg24
F0.97163074870167931
sg25
F0.21204924152830262
sg26
I30
sg27
S'Cl'
p626
sg29
I344
sS'y'
F2.885157
sS'x'
F29000.145745000002
sS'z'
F0.12565000000000001
sg30
g619
sg46
(lp627
sbag2
(g19
g4
NtRp628
(dp629
g22
I92
sg23
F4.5806473739729867
sg24
F0.56577916041406107
sg25
F-8.5596594893360241
sg26
I30
sg27
S'Cl'
p630
sg29
I344
sS'y'
F0.47261900000000001
sS'x'
F28999.992027
sS'z'
F2.8985310000000002
sg30
g619
sg46
(lp631
sbag2
(g19
g4
NtRp632
(dp633
g22
I93
sg23
F-10.339664274163352
sg24
F-8.2602904865681044
sg25
F-5.442624251921754
sg26
I30
sg27
S'Cs'
p634
sg29
I352
sS'y'
F3.4302630000000001
sS'x'
F29002.920254000001
sS'z'
F2.476807
sg30
g2
(g31
g4
NtRp635
(dp636
g34
I0
sg35
g36
sg22
I352
sg37
S'Cesium Ion Cs+'
p637
sg39
F6.2000000000000002
sg27
I55
sg40
F0.01
sg41
F1
sg42
F132.905
sg43
I72
sg44
S'Cs'
p638
sbsg46
(lp639
sbag2
(g19
g4
NtRp640
(dp641
g22
I94
sg23
F1.9739271422000941
sg24
F-7.8234614822573612
sg25
F13.177298412243044
sg26
I31
sg27
S'Pb'
p642
sg29
I356
sS'y'
F0.44441900000000001
sS'x'
F30000.428797
sS'z'
F0.24921099999999999
sg30
g2
(g31
g4
NtRp643
(dp644
g34
I0
sg35
g36
sg22
I356
sg37
S'Barium Ion Ba+2'
p645
sg39
F3.8166099999999998
sg27
I56
sg40
F0.047095999999999999
sg41
F2
sg42
F137.33000000000001
sg43
I76
sg44
S'Ba'
p646
sbsg46
(lp647
sbag2
(g19
g4
NtRp648
(dp649
g22
I95
sg23
F-2.7930994097682533
sg24
F5.4144684946303832
sg25
F0.32155105678136692
sg26
I31
sg27
S'Cl'
p650
sg29
I344
sS'y'
F0.16037499999999999
sS'x'
F30002.976439999999
sS'z'
F0.82952099999999995
sg30
g2
(g31
g4
NtRp651
(dp652
g34
I0
sg35
g36
sg22
I344
sg37
S'Chloride Ion Cl-'
p653
sg39
F4.0199999999999996
sg27
I17
sg40
F0.70999999999999996
sg41
F-1
sg42
F35.453000000000003
sg43
I21
sg44
S'Cl'
p654
sbsg46
(lp655
sbag2
(g19
g4
NtRp656
(dp657
g22
I96
sg23
F0.60865290849084663
sg24
F9.8993154775071019
sg25
F-2.6522900499948632
sg26
I31
sg27
S'Cl'
p658
sg29
I344
sS'y'
F3.004149
sS'x'
F30000.621163
sS'z'
F0.18709999999999999
sg30
g651
sg46
(lp659
sbag2
(g19
g4
NtRp660
(dp661
g22
I97
sg23
F4.9287166011473253
sg24
F2.4782823373214327
sg25
F-8.783559752558519
sg26
I31
sg27
S'Cl'
p662
sg29
I344
sS'y'
F0.48762
sS'x'
F29999.746805999999
sS'z'
F2.77006
sg30
g651
sg46
(lp663
sbag2
(g19
g4
NtRp664
(dp665
g22
I98
sg23
F-3.5311490098462985
sg24
F-10.015780831321454
sg25
F-2.4152365858301064
sg26
I31
sg27
S'Cs'
p666
sg29
I352
sS'y'
F3.3918430000000002
sS'x'
F30002.889551
sS'z'
F2.4909460000000001
sg30
g2
(g31
g4
NtRp667
(dp668
g34
I0
sg35
g36
sg22
I352
sg37
S'Cesium Ion Cs+'
p669
sg39
F6.2000000000000002
sg27
I55
sg40
F0.01
sg41
F1
sg42
F132.905
sg43
I72
sg44
S'Cs'
p670
sbsg46
(lp671
sbag2
(g19
g4
NtRp672
(dp673
g22
I99
sg23
F6.320477586462169
sg24
F6.3336487343906525
sg25
F-4.5253940865056119
sg26
I32
sg27
S'Pb'
p674
sg29
I356
sS'y'
F0.335559
sS'x'
F31000.231077
sS'z'
F0.51522100000000004
sg30
g2
(g31
g4
NtRp675
(dp676
g34
I0
sg35
g36
sg22
I356
sg37
S'Barium Ion Ba+2'
p677
sg39
F3.8166099999999998
sg27
I56
sg40
F0.047095999999999999
sg41
F2
sg42
F137.33000000000001
sg43
I76
sg44
S'Ba'
p678
sbsg46
(lp679
sbag2
(g19
g4
NtRp680
(dp681
g22
I100
sg23
F-2.767028307280492
sg24
F0.99113971087843467
sg25
F2.6375689121132195
sg26
I32
sg27
S'Cl'
p682
sg29
I344
sS'y'
F0.57136600000000004
sS'x'
F31002.496834000001
sS'z'
F-0.67414200000000002
sg30
g2
(g31
g4
NtRp683
(dp684
g34
I0
sg35
g36
sg22
I344
sg37
S'Chloride Ion Cl-'
p685
sg39
F4.0199999999999996
sg27
I17
sg40
F0.70999999999999996
sg41
F-1
sg42
F35.453000000000003
sg43
I21
sg44
S'Cl'
p686
sbsg46
(lp687
sbag2
(g19
g4
NtRp688
(dp689
g22
I101
sg23
F2.1490831928165735
sg24
F-0.40466117838744065
sg25
F3.3151842422582627
sg26
I32
sg27
S'Cl'
p690
sg29
I344
sS'y'
F2.9227979999999998
sS'x'
F30999.873728999999
sS'z'
F0.48939500000000002
sg30
g683
sg46
(lp691
sbag2
(g19
g4
NtRp692
(dp693
g22
I102
sg23
F0.10003344896772773
sg24
F-1.50207813683585
sg25
F7.1817055242843555
sg26
I32
sg27
S'Cl'
p694
sg29
I344
sS'y'
F0.49817299999999998
sS'x'
F31001.450883000001
sS'z'
F2.8075049999999999
sg30
g683
sg46
(lp695
sbag2
(g19
g4
NtRp696
(dp697
g22
I103
sg23
F-6.4712450583237668
sg24
F-4.4199430299582474
sg25
F-8.3350264519111743
sg26
I32
sg27
S'Cs'
p698
sg29
I352
sS'y'
F3.4117630000000001
sS'x'
F31002.854131
sS'z'
F2.548635
sg30
g2
(g31
g4
NtRp699
(dp700
g34
I0
sg35
g36
sg22
I352
sg37
S'Cesium Ion Cs+'
p701
sg39
F6.2000000000000002
sg27
I55
sg40
F0.01
sg41
F1
sg42
F132.905
sg43
I72
sg44
S'Cs'
p702
sbsg46
(lp703
sbag2
(g19
g4
NtRp704
(dp705
g22
I104
sg23
F-1.7821575160418401
sg24
F21.663838385177584
sg25
F13.851017012342796
sg26
I33
sg27
S'Pb'
p706
sg29
I356
sS'y'
F0.30820500000000001
sS'x'
F32000.382267000001
sS'z'
F0.32866000000000001
sg30
g2
(g31
g4
NtRp707
(dp708
g34
I0
sg35
g36
sg22
I356
sg37
S'Barium Ion Ba+2'
p709
sg39
F3.8166099999999998
sg27
I56
sg40
F0.047095999999999999
sg41
F2
sg42
F137.33000000000001
sg43
I76
sg44
S'Ba'
p710
sbsg46
(lp711
sbag2
(g19
g4
NtRp712
(dp713
g22
I105
sg23
F3.6495996572606595
sg24
F2.1216406476904437
sg25
F1.6225654393144564
sg26
I33
sg27
S'Cl'
p714
sg29
I344
sS'y'
F0.25906800000000002
sS'x'
F32002.928204
sS'z'
F0.61481600000000003
sg30
g2
(g31
g4
NtRp715
(dp716
g34
I0
sg35
g36
sg22
I344
sg37
S'Chloride Ion Cl-'
p717
sg39
F4.0199999999999996
sg27
I17
sg40
F0.70999999999999996
sg41
F-1
sg42
F35.453000000000003
sg43
I21
sg44
S'Cl'
p718
sbsg46
(lp719
sbag2
(g19
g4
NtRp720
(dp721
g22
I106
sg23
F3.3783533791316396
sg24
F-12.369406104769698
sg25
F3.8814218672398764
sg26
I33
sg27
S'Cl'
p722
sg29
I344
sS'y'
F2.9907620000000001
sS'x'
F32000.448402000002
sS'z'
F-0.119149
sg30
g715
sg46
(lp723
sbag2
(g19
g4
NtRp724
(dp725
g22
I107
sg23
F5.8290468254233048
sg24
F-0.6542260315195958
sg25
F-12.203057724700521
sg26
I33
sg27
S'Cl'
p726
sg29
I344
sS'y'
F0.83071799999999996
sS'x'
F32000.005776000002
sS'z'
F2.9200080000000002
sg30
g715
sg46
(lp727
sbag2
(g19
g4
NtRp728
(dp729
g22
I108
sg23
F-10.60244546463251
sg24
F-11.040812661435831
sg25
F-7.9731998690672441
sg26
I33
sg27
S'Cs'
p730
sg29
I352
sS'y'
F3.3836439999999999
sS'x'
F32002.899718000001
sS'z'
F2.485147
sg30
g2
(g31
g4
NtRp731
(dp732
g34
I0
sg35
g36
sg22
I352
sg37
S'Cesium Ion Cs+'
p733
sg39
F6.2000000000000002
sg27
I55
sg40
F0.01
sg41
F1
sg42
F132.905
sg43
I72
sg44
S'Cs'
p734
sbsg46
(lp735
sbag2
(g19
g4
NtRp736
(dp737
g22
I109
sg23
F-11.084444757725665
sg24
F3.3713672915191464
sg25
F-1.5586900188678761
sg26
I34
sg27
S'Pb'
p738
sg29
I356
sS'y'
F0.25040899999999999
sS'x'
F33000.480533000002
sS'z'
F0.37751699999999999
sg30
g2
(g31
g4
NtRp739
(dp740
g34
I0
sg35
g36
sg22
I356
sg37
S'Barium Ion Ba+2'
p741
sg39
F3.8166099999999998
sg27
I56
sg40
F0.047095999999999999
sg41
F2
sg42
F137.33000000000001
sg43
I76
sg44
S'Ba'
p742
sbsg46
(lp743
sbag2
(g19
g4
NtRp744
(dp745
g22
I110
sg23
F12.083276440177352
sg24
F4.7352697944421793
sg25
F-1.4872465790394394
sg26
I34
sg27
S'Cl'
p746
sg29
I344
sS'y'
F1.3415189999999999
sS'x'
F33002.735536
sS'z'
F-0.12973100000000001
sg30
g2
(g31
g4
NtRp747
(dp748
g34
I0
sg35
g36
sg22
I344
sg37
S'Chloride Ion Cl-'
p749
sg39
F4.0199999999999996
sg27
I17
sg40
F0.70999999999999996
sg41
F-1
sg42
F35.453000000000003
sg43
I21
sg44
S'Cl'
p750
sbsg46
(lp751
sbag2
(g19
g4
NtRp752
(dp753
g22
I111
sg23
F3.7171454195947153
sg24
F-1.6011066921272137
sg25
F1.0866250200125651
sg26
I34
sg27
S'Cl'
p754
sg29
I344
sS'y'
F2.5906850000000001
sS'x'
F32999.376208000001
sS'z'
F0.57389400000000002
sg30
g747
sg46
(lp755
sbag2
(g19
g4
NtRp756
(dp757
g22
I112
sg23
F4.8568430407758916
sg24
F2.7479944665140694
sg25
F7.0973103628909913
sg26
I34
sg27
S'Cl'
p758
sg29
I344
sS'y'
F0.20222000000000001
sS'x'
F33000.960050000002
sS'z'
F2.8831699999999998
sg30
g747
sg46
(lp759
sbag2
(g19
g4
NtRp760
(dp761
g22
I113
sg23
F-10.740154782838308
sg24
F-10.689250414764015
sg25
F-6.5063232593132279
sg26
I34
sg27
S'Cs'
p762
sg29
I352
sS'y'
F3.4371369999999999
sS'x'
F33002.879940999999
sS'z'
F2.52901
sg30
g2
(g31
g4
NtRp763
(dp764
g34
I0
sg35
g36
sg22
I352
sg37
S'Cesium Ion Cs+'
p765
sg39
F6.2000000000000002
sg27
I55
sg40
F0.01
sg41
F1
sg42
F132.905
sg43
I72
sg44
S'Cs'
p766
sbsg46
(lp767
sbag2
(g19
g4
NtRp768
(dp769
g22
I114
sg23
F4.5040401860031887
sg24
F21.826202771464239
sg25
F-2.6072030845575358
sg26
I35
sg27
S'Pb'
p770
sg29
I356
sS'y'
F0.26555800000000002
sS'x'
F34000.312232999997
sS'z'
F0.53206600000000004
sg30
g2
(g31
g4
NtRp771
(dp772
g34
I0
sg35
g36
sg22
I356
sg37
S'Barium Ion Ba+2'
p773
sg39
F3.8166099999999998
sg27
I56
sg40
F0.047095999999999999
sg41
F2
sg42
F137.33000000000001
sg43
I76
sg44
S'Ba'
p774
sbsg46
(lp775
sbag2
(g19
g4
NtRp776
(dp777
g22
I115
sg23
F2.9869909234635408
sg24
F0.6693187947456698
sg25
F3.2227260377128299
sg26
I35
sg27
S'Cl'
p778
sg29
I344
sS'y'
F0.12706899999999999
sS'x'
F34002.853905000004
sS'z'
F0.84864300000000004
sg30
g2
(g31
g4
NtRp779
(dp780
g34
I0
sg35
g36
sg22
I344
sg37
S'Chloride Ion Cl-'
p781
sg39
F4.0199999999999996
sg27
I17
sg40
F0.70999999999999996
sg41
F-1
sg42
F35.453000000000003
sg43
I21
sg44
S'Cl'
p782
sbsg46
(lp783
sbag2
(g19
g4
NtRp784
(dp785
g22
I116
sg23
F-1.2521667284076758
sg24
F-11.118690247013479
sg25
F8.7811179307919147
sg26
I35
sg27
S'Cl'
p786
sg29
I344
sS'y'
F2.5343079999999998
sS'x'
F34000.643144000001
sS'z'
F-0.824847
sg30
g779
sg46
(lp787
sbag2
(g19
g4
NtRp788
(dp789
g22
I117
sg23
F-0.012233320366868226
sg24
F-2.9115308983153279
sg25
F-1.0594692910863943
sg26
I35
sg27
S'Cl'
p790
sg29
I344
sS'y'
F1.6837470000000001
sS'x'
F34000.089024000001
sS'z'
F2.7693490000000001
sg30
g779
sg46
(lp791
sbag2
(g19
g4
NtRp792
(dp793
g22
I118
sg23
F-7.7571864839413767
sg24
F-10.254676955902362
sg25
F-9.2660588754433704
sg26
I35
sg27
S'Cs'
p794
sg29
I352
sS'y'
F3.4574310000000001
sS'x'
F34002.908838000003
sS'z'
F2.5286019999999998
sg30
g2
(g31
g4
NtRp795
(dp796
g34
I0
sg35
g36
sg22
I352
sg37
S'Cesium Ion Cs+'
p797
sg39
F6.2000000000000002
sg27
I55
sg40
F0.01
sg41
F1
sg42
F132.905
sg43
I72
sg44
S'Cs'
p798
sbsg46
(lp799
sbag2
(g19
g4
NtRp800
(dp801
g22
I119
sg23
F-14.434137422402687
sg24
F17.206425846085082
sg25
F4.6920460949564893
sg26
I36
sg27
S'Pb'
p802
sg29
I356
sS'y'
F0.169989
sS'x'
F35000.602814999998
sS'z'
F0.44361600000000001
sg30
g2
(g31
g4
NtRp803
(dp804
g34
I0
sg35
g36
sg22
I356
sg37
S'Barium Ion Ba+2'
p805
sg39
F3.8166099999999998
sg27
I56
sg40
F0.047095999999999999
sg41
F2
sg42
F137.33000000000001
sg43
I76
sg44
S'Ba'
p806
sbsg46
(lp807
sbag2
(g19
g4
NtRp808
(dp809
g22
I120
sg23
F5.5286620315357862
sg24
F-11.11953080036824
sg25
F-11.533822636311269
sg26
I36
sg27
S'Cl'
p810
sg29
I344
sS'y'
F1.315844
sS'x'
F35002.969369999999
sS'z'
F0.390241
sg30
g2
(g31
g4
NtRp811
(dp812
g34
I0
sg35
g36
sg22
I344
sg37
S'Chloride Ion Cl-'
p813
sg39
F4.0199999999999996
sg27
I17
sg40
F0.70999999999999996
sg41
F-1
sg42
F35.453000000000003
sg43
I21
sg44
S'Cl'
p814
sbsg46
(lp815
sbag2
(g19
g4
NtRp816
(dp817
g22
I121
sg23
F8.7813920246122787
sg24
F-11.888776826619409
sg25
F3.027758708025623
sg26
I36
sg27
S'Cl'
p818
sg29
I344
sS'y'
F2.310149
sS'x'
F34999.369958000003
sS'z'
F-0.417852
sg30
g811
sg46
(lp819
sbag2
(g19
g4
NtRp820
(dp821
g22
I122
sg23
F8.4582793713299367
sg24
F-1.2511866498340973
sg25
F-6.3557095528658571
sg26
I36
sg27
S'Cl'
p822
sg29
I344
sS'y'
F0.94538999999999995
sS'x'
F35000.125333999997
sS'z'
F2.925138
sg30
g811
sg46
(lp823
sbag2
(g19
g4
NtRp824
(dp825
g22
I123
sg23
F-8.9451262420437896
sg24
F6.1674906682662183
sg25
F10.307352804760038
sg26
I36
sg27
S'Cs'
p826
sg29
I352
sS'y'
F3.4134570000000002
sS'x'
F35002.938615999999
sS'z'
F2.4992000000000001
sg30
g2
(g31
g4
NtRp827
(dp828
g34
I0
sg35
g36
sg22
I352
sg37
S'Cesium Ion Cs+'
p829
sg39
F6.2000000000000002
sg27
I55
sg40
F0.01
sg41
F1
sg42
F132.905
sg43
I72
sg44
S'Cs'
p830
sbsg46
(lp831
sbag2
(g19
g4
NtRp832
(dp833
g22
I124
sg23
F36.276100389324505
sg24
F-77.806687410778494
sg25
F-29.552593136552659
sg26
I37
sg27
S'Pb'
p834
sg29
I356
sS'y'
F0.055312
sS'x'
F36001.385297000001
sS'z'
F1.866619
sg30
g2
(g31
g4
NtRp835
(dp836
g34
I0
sg35
g36
sg22
I356
sg37
S'Barium Ion Ba+2'
p837
sg39
F3.8166099999999998
sg27
I56
sg40
F0.047095999999999999
sg41
F2
sg42
F137.33000000000001
sg43
I76
sg44
S'Ba'
p838
sbsg46
(lp839
sbag2
(g19
g4
NtRp840
(dp841
g22
I125
sg23
F-54.595924516107161
sg24
F56.723188794715675
sg25
F20.511432954247198
sg26
I37
sg27
S'Cl'
p842
sg29
I344
sS'y'
F1.592921
sS'x'
F35999.729636999997
sS'z'
F2.344643
sg30
g2
(g31
g4
NtRp843
(dp844
g34
I0
sg35
g36
sg22
I344
sg37
S'Chloride Ion Cl-'
p845
sg39
F4.0199999999999996
sg27
I17
sg40
F0.70999999999999996
sg41
F-1
sg42
F35.453000000000003
sg43
I21
sg44
S'Cl'
p846
sbsg46
(lp847
sbag2
(g19
g4
NtRp848
(dp849
g22
I126
sg23
F15.243958483651131
sg24
F18.810595005537898
sg25
F6.0304725657542742
sg26
I37
sg27
S'Cl'
p850
sg29
I344
sS'y'
F1.2808809999999999
sS'x'
F36003.496915000003
sS'z'
F2.3434409999999999
sg30
g843
sg46
(lp851
sbag2
(g19
g4
NtRp852
(dp853
g22
I127
sg23
F0.31617662394691121
sg24
F1.7410396935079193
sg25
F6.2536928474915348
sg26
I37
sg27
S'Cl'
p854
sg29
I344
sS'y'
F0.85267099999999996
sS'x'
F36001.429326999998
sS'z'
F-0.69567699999999999
sg30
g843
sg46
(lp855
sbag2
(g19
g4
NtRp856
(dp857
g22
I128
sg23
F2.3406225758020014
sg24
F-2.0759796964867032
sg25
F-3.1353337995822428
sg26
I37
sg27
S'Cs'
p858
sg29
I352
sS'y'
F3.8168669999999998
sS'x'
F36001.715400000001
sS'z'
F0.88011099999999998
sg30
g2
(g31
g4
NtRp859
(dp860
g34
I0
sg35
g36
sg22
I352
sg37
S'Cesium Ion Cs+'
p861
sg39
F6.2000000000000002
sg27
I55
sg40
F0.01
sg41
F1
sg42
F132.905
sg43
I72
sg44
S'Cs'
p862
sbsg46
(lp863
sbag2
(g19
g4
NtRp864
(dp865
g22
I129
sg23
F15.144176778665889
sg24
F0.68532041422398493
sg25
F-3.4373144392474471
sg26
I38
sg27
S'Pb'
p866
sg29
I356
sS'y'
F0.47050999999999998
sS'x'
F37000.274421000002
sS'z'
F0.38691599999999998
sg30
g2
(g31
g4
NtRp867
(dp868
g34
I0
sg35
g36
sg22
I356
sg37
S'Barium Ion Ba+2'
p869
sg39
F3.8166099999999998
sg27
I56
sg40
F0.047095999999999999
sg41
F2
sg42
F137.33000000000001
sg43
I76
sg44
S'Ba'
p870
sbsg46
(lp871
sbag2
(g19
g4
NtRp872
(dp873
g22
I130
sg23
F-10.652912098183061
sg24
F4.1229103334845201
sg25
F4.0784426475719604
sg26
I38
sg27
S'Cl'
p874
sg29
I344
sS'y'
F0.30150199999999999
sS'x'
F37002.902189
sS'z'
F-0.010168999999999999
sg30
g2
(g31
g4
NtRp875
(dp876
g34
I0
sg35
g36
sg22
I344
sg37
S'Chloride Ion Cl-'
p877
sg39
F4.0199999999999996
sg27
I17
sg40
F0.70999999999999996
sg41
F-1
sg42
F35.453000000000003
sg43
I21
sg44
S'Cl'
p878
sbsg46
(lp879
sbag2
(g19
g4
NtRp880
(dp881
g22
I131
sg23
F3.7245338706934841
sg24
F4.4367331002060819
sg25
F3.9345794056186696
sg26
I38
sg27
S'Cl'
p882
sg29
I344
sS'y'
F3.084387
sS'x'
F37000.387175999997
sS'z'
F0.51971900000000004
sg30
g875
sg46
(lp883
sbag2
(g19
g4
NtRp884
(dp885
g22
I132
sg23
F1.7299938659889589
sg24
F2.5996190688199383
sg25
F4.8180651637367378
sg26
I38
sg27
S'Cl'
p886
sg29
I344
sS'y'
F0.198439
sS'x'
F37000.489394999997
sS'z'
F2.902129
sg30
g875
sg46
(lp887
sbag2
(g19
g4
NtRp888
(dp889
g22
I133
sg23
F-10.110284896246894
sg24
F-11.749796142012386
sg25
F-9.1719172352897758
sg26
I38
sg27
S'Cs'
p890
sg29
I352
sS'y'
F3.717657
sS'x'
F37003.133398999998
sS'z'
F2.7462650000000002
sg30
g2
(g31
g4
NtRp891
(dp892
g34
I0
sg35
g36
sg22
I352
sg37
S'Cesium Ion Cs+'
p893
sg39
F6.2000000000000002
sg27
I55
sg40
F0.01
sg41
F1
sg42
F132.905
sg43
I72
sg44
S'Cs'
p894
sbsg46
(lp895
sbag2
(g19
g4
NtRp896
(dp897
g22
I134
sg23
F11.747713722429722
sg24
F-7.340421108624378
sg25
F9.3235727278241693
sg26
I39
sg27
S'Pb'
p898
sg29
I356
sS'y'
F0.43187799999999998
sS'x'
F38000.343067000002
sS'z'
F0.26408399999999999
sg30
g2
(g31
g4
NtRp899
(dp900
g34
I0
sg35
g36
sg22
I356
sg37
S'Barium Ion Ba+2'
p901
sg39
F3.8166099999999998
sg27
I56
sg40
F0.047095999999999999
sg41
F2
sg42
F137.33000000000001
sg43
I76
sg44
S'Ba'
p902
sbsg46
(lp903
sbag2
(g19
g4
NtRp904
(dp905
g22
I135
sg23
F-3.5972491711956813
sg24
F4.0111847271493319
sg25
F1.9055258700965294
sg26
I39
sg27
S'Cl'
p906
sg29
I344
sS'y'
F0.67793800000000004
sS'x'
F38002.972869999998
sS'z'
F0.171426
sg30
g2
(g31
g4
NtRp907
(dp908
g34
I0
sg35
g36
sg22
I344
sg37
S'Chloride Ion Cl-'
p909
sg39
F4.0199999999999996
sg27
I17
sg40
F0.70999999999999996
sg41
F-1
sg42
F35.453000000000003
sg43
I21
sg44
S'Cl'
p910
sbsg46
(lp911
sbag2
(g19
g4
NtRp912
(dp913
g22
I136
sg23
F2.0525849941997958
sg24
F14.48311100425164
sg25
F3.1135245650073848
sg26
I39
sg27
S'Cl'
p914
sg29
I344
sS'y'
F2.934059
sS'x'
F38000.074122999999
sS'z'
F0.53608199999999995
sg30
g907
sg46
(lp915
sbag2
(g19
g4
NtRp916
(dp917
g22
I137
sg23
F0.11996431769517435
sg24
F2.0761039581702292
sg25
F-4.1836947919851495
sg26
I39
sg27
S'Cl'
p918
sg29
I344
sS'y'
F0.101634
sS'x'
F38000.448434999998
sS'z'
F2.8402959999999999
sg30
g907
sg46
(lp919
sbag2
(g19
g4
NtRp920
(dp921
g22
I138
sg23
F-10.427211016457585
sg24
F-13.954936025923223
sg25
F-9.9529094827962687
sg26
I39
sg27
S'Cs'
p922
sg29
I352
sS'y'
F3.7086709999999998
sS'x'
F38003.132039999997
sS'z'
F2.7792690000000002
sg30
g2
(g31
g4
NtRp923
(dp924
g34
I0
sg35
g36
sg22
I352
sg37
S'Cesium Ion Cs+'
p925
sg39
F6.2000000000000002
sg27
I55
sg40
F0.01
sg41
F1
sg42
F132.905
sg43
I72
sg44
S'Cs'
p926
sbsg46
(lp927
sbag2
(g19
g4
NtRp928
(dp929
g22
I139
sg23
F-9.3793062368001756
sg24
F11.135644435839515
sg25
F-12.233246221565652
sg26
I40
sg27
S'Pb'
p930
sg29
I356
sS'y'
F0.23899400000000001
sS'x'
F39000.450075000001
sS'z'
F0.61251100000000003
sg30
g2
(g31
g4
NtRp931
(dp932
g34
I0
sg35
g36
sg22
I356
sg37
S'Barium Ion Ba+2'
p933
sg39
F3.8166099999999998
sg27
I56
sg40
F0.047095999999999999
sg41
F2
sg42
F137.33000000000001
sg43
I76
sg44
S'Ba'
p934
sbsg46
(lp935
sbag2
(g19
g4
NtRp936
(dp937
g22
I140
sg23
F9.4757293640095703
sg24
F3.3594810173668499
sg25
F3.2708978523300725
sg26
I40
sg27
S'Cl'
p938
sg29
I344
sS'y'
F0.69590600000000002
sS'x'
F39002.886319999998
sS'z'
F0.053134000000000001
sg30
g2
(g31
g4
NtRp939
(dp940
g34
I0
sg35
g36
sg22
I344
sg37
S'Chloride Ion Cl-'
p941
sg39
F4.0199999999999996
sg27
I17
sg40
F0.70999999999999996
sg41
F-1
sg42
F35.453000000000003
sg43
I21
sg44
S'Cl'
p942
sbsg46
(lp943
sbag2
(g19
g4
NtRp944
(dp945
g22
I141
sg23
F3.5182474046623211
sg24
F-10.004504812804587
sg25
F6.5686367595371795
sg26
I40
sg27
S'Cl'
p946
sg29
I344
sS'y'
F2.554627
sS'x'
F38999.719020999997
sS'z'
F-0.42646200000000001
sg30
g939
sg46
(lp947
sbag2
(g19
g4
NtRp948
(dp949
g22
I142
sg23
F5.9735209894280317
sg24
F7.4112668657869865
sg25
F10.279683317710482
sg26
I40
sg27
S'Cl'
p950
sg29
I344
sS'y'
F1.207544
sS'x'
F39000.6342
sS'z'
F2.9884529999999998
sg30
g939
sg46
(lp951
sbag2
(g19
g4
NtRp952
(dp953
g22
I143
sg23
F-9.5191186228126927
sg24
F-12.496713662810837
sg25
F-8.2526144236018695
sg26
I40
sg27
S'Cs'
p954
sg29
I352
sS'y'
F3.7543229999999999
sS'x'
F39003.153543
sS'z'
F2.801752
sg30
g2
(g31
g4
NtRp955
(dp956
g34
I0
sg35
g36
sg22
I352
sg37
S'Cesium Ion Cs+'
p957
sg39
F6.2000000000000002
sg27
I55
sg40
F0.01
sg41
F1
sg42
F132.905
sg43
I72
sg44
S'Cs'
p958
sbsg46
(lp959
sbag2
(g19
g4
NtRp960
(dp961
g22
I144
sg23
F11.85620853210801
sg24
F16.544116420823556
sg25
F-0.20456119325300615
sg26
I41
sg27
S'Pb'
p962
sg29
I356
sS'y'
F0.23650499999999999
sS'x'
F40000.346181000001
sS'z'
F0.54656800000000005
sg30
g2
(g31
g4
NtRp963
(dp964
g34
I0
sg35
g36
sg22
I356
sg37
S'Barium Ion Ba+2'
p965
sg39
F3.8166099999999998
sg27
I56
sg40
F0.047095999999999999
sg41
F2
sg42
F137.33000000000001
sg43
I76
sg44
S'Ba'
p966
sbsg46
(lp967
sbag2
(g19
g4
NtRp968
(dp969
g22
I145
sg23
F-8.0281979595211599
sg24
F1.6409866706451428
sg25
F6.1104571310717448
sg26
I41
sg27
S'Cl'
p970
sg29
I344
sS'y'
F0.48908099999999999
sS'x'
F40002.922981999996
sS'z'
F-0.0090220000000000005
sg30
g2
(g31
g4
NtRp971
(dp972
g34
I0
sg35
g36
sg22
I344
sg37
S'Chloride Ion Cl-'
p973
sg39
F4.0199999999999996
sg27
I17
sg40
F0.70999999999999996
sg41
F-1
sg42
F35.453000000000003
sg43
I21
sg44
S'Cl'
p974
sbsg46
(lp975
sbag2
(g19
g4
NtRp976
(dp977
g22
I146
sg23
F2.2512054267070392
sg24
F-7.2513980414331503
sg25
F4.3260903439904812
sg26
I41
sg27
S'Cl'
p978
sg29
I344
sS'y'
F2.6220599999999998
sS'x'
F39999.831117000002
sS'z'
F-0.35732999999999998
sg30
g971
sg46
(lp979
sbag2
(g19
g4
NtRp980
(dp981
g22
I147
sg23
F4.2671106894451425
sg24
F2.0977827483337017
sg25
F-2.1850364620552747
sg26
I41
sg27
S'Cl'
p982
sg29
I344
sS'y'
F1.166703
sS'x'
F40000.660293000001
sS'z'
F3.0201069999999999
sg30
g971
sg46
(lp983
sbag2
(g19
g4
NtRp984
(dp985
g22
I148
sg23
F-10.353089134491706
sg24
F-12.903240527354665
sg25
F-7.4040480815946976
sg26
I41
sg27
S'Cs'
p986
sg29
I352
sS'y'
F3.7441620000000002
sS'x'
F40003.189005
sS'z'
F2.7305060000000001
sg30
g2
(g31
g4
NtRp987
(dp988
g34
I0
sg35
g36
sg22
I352
sg37
S'Cesium Ion Cs+'
p989
sg39
F6.2000000000000002
sg27
I55
sg40
F0.01
sg41
F1
sg42
F132.905
sg43
I72
sg44
S'Cs'
p990
sbsg46
(lp991
sbag2
(g19
g4
NtRp992
(dp993
g22
I149
sg23
F-0.026534393235290676
sg24
F1.917052341266644
sg25
F3.2072080738014286
sg26
I42
sg27
S'Pb'
p994
sg29
I356
sS'y'
F0.36132999999999998
sS'x'
F41000.343781000003
sS'z'
F0.399011
sg30
g2
(g31
g4
NtRp995
(dp996
g34
I0
sg35
g36
sg22
I356
sg37
S'Barium Ion Ba+2'
p997
sg39
F3.8166099999999998
sg27
I56
sg40
F0.047095999999999999
sg41
F2
sg42
F137.33000000000001
sg43
I76
sg44
S'Ba'
p998
sbsg46
(lp999
sbag2
(g19
g4
NtRp1000
(dp1001
g22
I150
sg23
F4.0608023716094142
sg24
F2.0418396313651948
sg25
F1.3470850171270341
sg26
I42
sg27
S'Cl'
p1002
sg29
I344
sS'y'
F-0.284858
sS'x'
F41002.751704000002
sS'z'
F0.95915300000000003
sg30
g2
(g31
g4
NtRp1003
(dp1004
g34
I0
sg35
g36
sg22
I344
sg37
S'Chloride Ion Cl-'
p1005
sg39
F4.0199999999999996
sg27
I17
sg40
F0.70999999999999996
sg41
F-1
sg42
F35.453000000000003
sg43
I21
sg44
S'Cl'
p1006
sbsg46
(lp1007
sbag2
(g19
g4
NtRp1008
(dp1009
g22
I151
sg23
F3.99975667091952
sg24
F4.7201141035210394
sg25
F1.7225309257074688
sg26
I42
sg27
S'Cl'
p1010
sg29
I344
sS'y'
F2.695729
sS'x'
F41000.980958
sS'z'
F-0.49645099999999998
sg30
g1003
sg46
(lp1011
sbag2
(g19
g4
NtRp1012
(dp1013
g22
I152
sg23
F3.2200403491906631
sg24
F3.8631134167390258
sg25
F2.3704066020256183
sg26
I42
sg27
S'Cl'
p1014
sg29
I344
sS'y'
F1.344511
sS'x'
F40999.966464999998
sS'z'
F2.7764880000000001
sg30
g1003
sg46
(lp1015
sbag2
(g19
g4
NtRp1016
(dp1017
g22
I153
sg23
F-12.103414878518089
sg24
F-13.773873549214835
sg25
F-9.8034531488534302
sg26
I42
sg27
S'Cs'
p1018
sg29
I352
sS'y'
F3.7582840000000002
sS'x'
F41003.146038999999
sS'z'
F2.7892960000000002
sg30
g2
(g31
g4
NtRp1019
(dp1020
g34
I0
sg35
g36
sg22
I352
sg37
S'Cesium Ion Cs+'
p1021
sg39
F6.2000000000000002
sg27
I55
sg40
F0.01
sg41
F1
sg42
F132.905
sg43
I72
sg44
S'Cs'
p1022
sbsg46
(lp1023
sbag2
(g19
g4
NtRp1024
(dp1025
g22
I154
sg23
F-4.8334924666122259
sg24
F12.380677016073506
sg25
F-13.738703943696867
sg26
I43
sg27
S'Pb'
p1026
sg29
I356
sS'y'
F0.297124
sS'x'
F42000.355812000002
sS'z'
F0.54415899999999995
sg30
g2
(g31
g4
NtRp1027
(dp1028
g34
I0
sg35
g36
sg22
I356
sg37
S'Barium Ion Ba+2'
p1029
sg39
F3.8166099999999998
sg27
I56
sg40
F0.047095999999999999
sg41
F2
sg42
F137.33000000000001
sg43
I76
sg44
S'Ba'
p1030
sbsg46
(lp1031
sbag2
(g19
g4
NtRp1032
(dp1033
g22
I155
sg23
F0.19196583468300971
sg24
F0.69265173734421348
sg25
F2.1343325357889098
sg26
I43
sg27
S'Cl'
p1034
sg29
I344
sS'y'
F0.848943
sS'x'
F42002.521366000001
sS'z'
F-0.72958900000000004
sg30
g2
(g31
g4
NtRp1035
(dp1036
g34
I0
sg35
g36
sg22
I344
sg37
S'Chloride Ion Cl-'
p1037
sg39
F4.0199999999999996
sg27
I17
sg40
F0.70999999999999996
sg41
F-1
sg42
F35.453000000000003
sg43
I21
sg44
S'Cl'
p1038
sbsg46
(lp1039
sbag2
(g19
g4
NtRp1040
(dp1041
g22
I156
sg23
F5.1664267246086828
sg24
F-5.071240266293815
sg25
F2.5599348173945615
sg26
I43
sg27
S'Cl'
p1042
sg29
I344
sS'y'
F2.869202
sS'x'
F41999.711130999996
sS'z'
F0.76156100000000004
sg30
g1035
sg46
(lp1043
sbag2
(g19
g4
NtRp1044
(dp1045
g22
I157
sg23
F10.65560035513418
sg24
F3.9773983273423021
sg25
F17.367562675115266
sg26
I43
sg27
S'Cl'
p1046
sg29
I344
sS'y'
F0.35097099999999998
sS'x'
F42001.514829
sS'z'
F2.7698900000000002
sg30
g1035
sg46
(lp1047
sbag2
(g19
g4
NtRp1048
(dp1049
g22
I158
sg23
F-12.324914878482479
sg24
F-13.241237987681073
sg25
F-9.585225423420475
sg26
I43
sg27
S'Cs'
p1050
sg29
I352
sS'y'
F3.7471839999999998
sS'x'
F42003.203817000001
sS'z'
F2.7579560000000001
sg30
g2
(g31
g4
NtRp1051
(dp1052
g34
I0
sg35
g36
sg22
I352
sg37
S'Cesium Ion Cs+'
p1053
sg39
F6.2000000000000002
sg27
I55
sg40
F0.01
sg41
F1
sg42
F132.905
sg43
I72
sg44
S'Cs'
p1054
sbsg46
(lp1055
sbag2
(g19
g4
NtRp1056
(dp1057
g22
I159
sg23
F-5.8708922117824764
sg24
F18.889435026266064
sg25
F17.300307869772443
sg26
I44
sg27
S'Pb'
p1058
sg29
I356
sS'y'
F0.34665899999999999
sS'x'
F43000.514586999998
sS'z'
F0.236877
sg30
g2
(g31
g4
NtRp1059
(dp1060
g34
I0
sg35
g36
sg22
I356
sg37
S'Barium Ion Ba+2'
p1061
sg39
F3.8166099999999998
sg27
I56
sg40
F0.047095999999999999
sg41
F2
sg42
F137.33000000000001
sg43
I76
sg44
S'Ba'
p1062
sbsg46
(lp1063
sbag2
(g19
g4
NtRp1064
(dp1065
g22
I160
sg23
F1.4599011219505675
sg24
F-31.651013292823766
sg25
F-26.856166271449226
sg26
I44
sg27
S'Cl'
p1066
sg29
I344
sS'y'
F1.225943
sS'x'
F43003.015448999999
sS'z'
F0.72894000000000003
sg30
g2
(g31
g4
NtRp1067
(dp1068
g34
I0
sg35
g36
sg22
I344
sg37
S'Chloride Ion Cl-'
p1069
sg39
F4.0199999999999996
sg27
I17
sg40
F0.70999999999999996
sg41
F-1
sg42
F35.453000000000003
sg43
I21
sg44
S'Cl'
p1070
sbsg46
(lp1071
sbag2
(g19
g4
NtRp1072
(dp1073
g22
I161
sg23
F10.899458200642469
sg24
F-14.997603423213738
sg25
F-0.61210291213948476
sg26
I44
sg27
S'Cl'
p1074
sg29
I344
sS'y'
F2.8715480000000002
sS'x'
F42999.576163999998
sS'z'
F0.41889100000000001
sg30
g1067
sg46
(lp1075
sbag2
(g19
g4
NtRp1076
(dp1077
g22
I162
sg23
F3.5646647214321994
sg24
F1.5438695280831873
sg25
F-11.441272347777595
sg26
I44
sg27
S'Cl'
p1078
sg29
I344
sS'y'
F-0.054801999999999997
sS'x'
F43000.110844000003
sS'z'
F2.7665320000000002
sg30
g1067
sg46
(lp1079
sbag2
(g19
g4
NtRp1080
(dp1081
g22
I163
sg23
F-10.202316517471651
sg24
F25.894456367714316
sg25
F21.359117650407999
sg26
I44
sg27
S'Cs'
p1082
sg29
I352
sS'y'
F3.3984209999999999
sS'x'
F43002.919336999999
sS'z'
F2.4934310000000002
sg30
g2
(g31
g4
NtRp1083
(dp1084
g34
I0
sg35
g36
sg22
I352
sg37
S'Cesium Ion Cs+'
p1085
sg39
F6.2000000000000002
sg27
I55
sg40
F0.01
sg41
F1
sg42
F132.905
sg43
I72
sg44
S'Cs'
p1086
sbsg46
(lp1087
sbag2
(g19
g4
NtRp1088
(dp1089
g22
I164
sg23
F36.335177686858508
sg24
F-0.6915711414182697
sg25
F20.041884558046441
sg26
I45
sg27
S'Pb'
p1090
sg29
I356
sS'y'
F0.51741000000000004
sS'x'
F44000.137953999998
sS'z'
F0.36054900000000001
sg30
g2
(g31
g4
NtRp1091
(dp1092
g34
I0
sg35
g36
sg22
I356
sg37
S'Barium Ion Ba+2'
p1093
sg39
F3.8166099999999998
sg27
I56
sg40
F0.047095999999999999
sg41
F2
sg42
F137.33000000000001
sg43
I76
sg44
S'Ba'
p1094
sbsg46
(lp1095
sbag2
(g19
g4
NtRp1096
(dp1097
g22
I165
sg23
F-23.263964728370276
sg24
F7.907536518508385
sg25
F1.85425156169052
sg26
I45
sg27
S'Cl'
p1098
sg29
I344
sS'y'
F-0.37304500000000002
sS'x'
F44002.668562999999
sS'z'
F-0.028915
sg30
g2
(g31
g4
NtRp1099
(dp1100
g34
I0
sg35
g36
sg22
I344
sg37
S'Chloride Ion Cl-'
p1101
sg39
F4.0199999999999996
sg27
I17
sg40
F0.70999999999999996
sg41
F-1
sg42
F35.453000000000003
sg43
I21
sg44
S'Cl'
p1102
sbsg46
(lp1103
sbag2
(g19
g4
NtRp1104
(dp1105
g22
I166
sg23
F-1.5990023152043544
sg24
F-1.1350408496095703
sg25
F2.1006116581933552
sg26
I45
sg27
S'Cl'
p1106
sg29
I344
sS'y'
F3.0334110000000001
sS'x'
F44001.000831999998
sS'z'
F0.24291399999999999
sg30
g1099
sg46
(lp1107
sbag2
(g19
g4
NtRp1108
(dp1109
g22
I167
sg23
F-2.7155200548398137
sg24
F5.0585569396251815
sg25
F-17.644837366667588
sg26
I45
sg27
S'Cl'
p1110
sg29
I344
sS'y'
F0.49255399999999999
sS'x'
F44000.557013999998
sS'z'
F3.062233
sg30
g1099
sg46
(lp1111
sbag2
(g19
g4
NtRp1112
(dp1113
g22
I168
sg23
F-9.796335293483887
sg24
F-11.870326618050383
sg25
F-6.7670470587453559
sg26
I45
sg27
S'Cs'
p1114
sg29
I352
sS'y'
F3.71651
sS'x'
F44003.146247999997
sS'z'
F2.8168739999999999
sg30
g2
(g31
g4
NtRp1115
(dp1116
g34
I0
sg35
g36
sg22
I352
sg37
S'Cesium Ion Cs+'
p1117
sg39
F6.2000000000000002
sg27
I55
sg40
F0.01
sg41
F1
sg42
F132.905
sg43
I72
sg44
S'Cs'
p1118
sbsg46
(lp1119
sbag2
(g19
g4
NtRp1120
(dp1121
g22
I169
sg23
F-2.4528553745213824
sg24
F-2.7405479862336195
sg25
F15.520984769229969
sg26
I46
sg27
S'Pb'
p1122
sg29
I356
sS'y'
F0.52570099999999997
sS'x'
F45000.404581000003
sS'z'
F0.21112800000000001
sg30
g2
(g31
g4
NtRp1123
(dp1124
g34
I0
sg35
g36
sg22
I356
sg37
S'Barium Ion Ba+2'
p1125
sg39
F3.8166099999999998
sg27
I56
sg40
F0.047095999999999999
sg41
F2
sg42
F137.33000000000001
sg43
I76
sg44
S'Ba'
p1126
sbsg46
(lp1127
sbag2
(g19
g4
NtRp1128
(dp1129
g22
I170
sg23
F7.3399931794279638
sg24
F3.0560080185035132
sg25
F0.15834579341830055
sg26
I46
sg27
S'Cl'
p1130
sg29
I344
sS'y'
F0.375859
sS'x'
F45002.936733000002
sS'z'
F0.45230900000000002
sg30
g2
(g31
g4
NtRp1131
(dp1132
g34
I0
sg35
g36
sg22
I344
sg37
S'Chloride Ion Cl-'
p1133
sg39
F4.0199999999999996
sg27
I17
sg40
F0.70999999999999996
sg41
F-1
sg42
F35.453000000000003
sg43
I21
sg44
S'Cl'
p1134
sbsg46
(lp1135
sbag2
(g19
g4
NtRp1136
(dp1137
g22
I171
sg23
F5.553147184879295
sg24
F7.9213581584209232
sg25
F3.5409658678286116
sg26
I46
sg27
S'Cl'
p1138
sg29
I344
sS'y'
F3.0690810000000002
sS'x'
F45000.418433999999
sS'z'
F0.80519799999999997
sg30
g1131
sg46
(lp1139
sbag2
(g19
g4
NtRp1140
(dp1141
g22
I172
sg23
F0.34067244587548962
sg24
F2.7880576513298685
sg25
F-10.025353945870741
sg26
I46
sg27
S'Cl'
p1142
sg29
I344
sS'y'
F-0.16255800000000001
sS'x'
F45000.038060999999
sS'z'
F2.7079
sg30
g1131
sg46
(lp1143
sbag2
(g19
g4
NtRp1144
(dp1145
g22
I173
sg23
F-10.681158179744964
sg24
F-11.316662279276585
sg25
F-9.7043912692043648
sg26
I46
sg27
S'Cs'
p1146
sg29
I352
sS'y'
F4.0588819999999997
sS'x'
F45003.425465
sS'z'
F3.0086249999999999
sg30
g2
(g31
g4
NtRp1147
(dp1148
g34
I0
sg35
g36
sg22
I352
sg37
S'Cesium Ion Cs+'
p1149
sg39
F6.2000000000000002
sg27
I55
sg40
F0.01
sg41
F1
sg42
F132.905
sg43
I72
sg44
S'Cs'
p1150
sbsg46
(lp1151
sbag2
(g19
g4
NtRp1152
(dp1153
g22
I174
sg23
F1.9341366507824105
sg24
F-11.747194411234881
sg25
F17.902660826404844
sg26
I47
sg27
S'Pb'
p1154
sg29
I356
sS'y'
F0.58420300000000003
sS'x'
F46000.227327000001
sS'z'
F0.33728000000000002
sg30
g2
(g31
g4
NtRp1155
(dp1156
g34
I0
sg35
g36
sg22
I356
sg37
S'Barium Ion Ba+2'
p1157
sg39
F3.8166099999999998
sg27
I56
sg40
F0.047095999999999999
sg41
F2
sg42
F137.33000000000001
sg43
I76
sg44
S'Ba'
p1158
sbsg46
(lp1159
sbag2
(g19
g4
NtRp1160
(dp1161
g22
I175
sg23
F3.2364421870546218
sg24
F0.34021379632413296
sg25
F-3.1287038140900876
sg26
I47
sg27
S'Cl'
p1162
sg29
I344
sS'y'
F-0.169516
sS'x'
F46002.573713999998
sS'z'
F-0.19650100000000001
sg30
g2
(g31
g4
NtRp1163
(dp1164
g34
I0
sg35
g36
sg22
I344
sg37
S'Chloride Ion Cl-'
p1165
sg39
F4.0199999999999996
sg27
I17
sg40
F0.70999999999999996
sg41
F-1
sg42
F35.453000000000003
sg43
I21
sg44
S'Cl'
p1166
sbsg46
(lp1167
sbag2
(g19
g4
NtRp1168
(dp1169
g22
I176
sg23
F7.5651903190295222
sg24
F16.706438211032307
sg25
F4.537325745722371
sg26
I47
sg27
S'Cl'
p1170
sg29
I344
sS'y'
F3.0482079999999998
sS'x'
F46000.881036999999
sS'z'
F0.67119899999999999
sg30
g1163
sg46
(lp1171
sbag2
(g19
g4
NtRp1172
(dp1173
g22
I177
sg23
F-2.8732826038152286
sg24
F4.8909223553193932
sg25
F-11.441623444663126
sg26
I47
sg27
S'Cl'
p1174
sg29
I344
sS'y'
F0.094810000000000005
sS'x'
F46000.604609000002
sS'z'
F2.9410539999999998
sg30
g1163
sg46
(lp1175
sbag2
(g19
g4
NtRp1176
(dp1177
g22
I178
sg23
F-10.500386061202034
sg24
F-10.395342289184407
sg25
F-8.20173597460421
sg26
I47
sg27
S'Cs'
p1178
sg29
I352
sS'y'
F4.1314190000000002
sS'x'
F46003.412497999998
sS'z'
F3.0217019999999999
sg30
g2
(g31
g4
NtRp1179
(dp1180
g34
I0
sg35
g36
sg22
I352
sg37
S'Cesium Ion Cs+'
p1181
sg39
F6.2000000000000002
sg27
I55
sg40
F0.01
sg41
F1
sg42
F132.905
sg43
I72
sg44
S'Cs'
p1182
sbsg46
(lp1183
sbag2
(g19
g4
NtRp1184
(dp1185
g22
I179
sg23
F-2.7794351471972649
sg24
F13.342171591547563
sg25
F28.257993768174739
sg26
I48
sg27
S'Pb'
p1186
sg29
I356
sS'y'
F0.39212900000000001
sS'x'
F47000.542013999999
sS'z'
F0.18048700000000001
sg30
g2
(g31
g4
NtRp1187
(dp1188
g34
I0
sg35
g36
sg22
I356
sg37
S'Barium Ion Ba+2'
p1189
sg39
F3.8166099999999998
sg27
I56
sg40
F0.047095999999999999
sg41
F2
sg42
F137.33000000000001
sg43
I76
sg44
S'Ba'
p1190
sbsg46
(lp1191
sbag2
(g19
g4
NtRp1192
(dp1193
g22
I180
sg23
F0.87772443403230449
sg24
F4.9648313221144074
sg25
F1.7042196257445834
sg26
I48
sg27
S'Cl'
p1194
sg29
I344
sS'y'
F1.097817
sS'x'
F47003.042684
sS'z'
F0.729105
sg30
g2
(g31
g4
NtRp1195
(dp1196
g34
I0
sg35
g36
sg22
I344
sg37
S'Chloride Ion Cl-'
p1197
sg39
F4.0199999999999996
sg27
I17
sg40
F0.70999999999999996
sg41
F-1
sg42
F35.453000000000003
sg43
I21
sg44
S'Cl'
p1198
sbsg46
(lp1199
sbag2
(g19
g4
NtRp1200
(dp1201
g22
I181
sg23
F6.6180639785879203
sg24
F-7.9123836561996503
sg25
F-3.5369594898201928
sg26
I48
sg27
S'Cl'
p1202
sg29
I344
sS'y'
F2.8572350000000002
sS'x'
F46999.674763000003
sS'z'
F0.61136000000000001
sg30
g1195
sg46
(lp1203
sbag2
(g19
g4
NtRp1204
(dp1205
g22
I182
sg23
F3.9800562161191779
sg24
F1.4341045840432312
sg25
F-17.470735596845358
sg26
I48
sg27
S'Cl'
p1206
sg29
I344
sS'y'
F-0.204566
sS'x'
F47000.052514000003
sS'z'
F2.7246950000000001
sg30
g1195
sg46
(lp1207
sbag2
(g19
g4
NtRp1208
(dp1209
g22
I183
sg23
F-9.3260235865238439
sg24
F-12.915026679023866
sg25
F-10.015024242826119
sg26
I48
sg27
S'Cs'
p1210
sg29
I352
sS'y'
F4.0538449999999999
sS'x'
F47003.463087999997
sS'z'
F2.9975049999999999
sg30
g2
(g31
g4
NtRp1211
(dp1212
g34
I0
sg35
g36
sg22
I352
sg37
S'Cesium Ion Cs+'
p1213
sg39
F6.2000000000000002
sg27
I55
sg40
F0.01
sg41
F1
sg42
F132.905
sg43
I72
sg44
S'Cs'
p1214
sbsg46
(lp1215
sbag2
(g19
g4
NtRp1216
(dp1217
g22
I184
sg23
F3.5123415726530061
sg24
F11.373434831599006
sg25
F1.3939910658462522
sg26
I49
sg27
S'Pb'
p1218
sg29
I356
sS'y'
F0.29570400000000002
sS'x'
F48000.447724999998
sS'z'
F0.42774800000000002
sg30
g2
(g31
g4
NtRp1219
(dp1220
g34
I0
sg35
g36
sg22
I356
sg37
S'Barium Ion Ba+2'
p1221
sg39
F3.8166099999999998
sg27
I56
sg40
F0.047095999999999999
sg41
F2
sg42
F137.33000000000001
sg43
I76
sg44
S'Ba'
p1222
sbsg46
(lp1223
sbag2
(g19
g4
NtRp1224
(dp1225
g22
I185
sg23
F1.0335264191333566
sg24
F3.8467858083689896
sg25
F2.2680497541270959
sg26
I49
sg27
S'Cl'
p1226
sg29
I344
sS'y'
F0.61711499999999997
sS'x'
F48003.036956999997
sS'z'
F0.48859200000000003
sg30
g2
(g31
g4
NtRp1227
(dp1228
g34
I0
sg35
g36
sg22
I344
sg37
S'Chloride Ion Cl-'
p1229
sg39
F4.0199999999999996
sg27
I17
sg40
F0.70999999999999996
sg41
F-1
sg42
F35.453000000000003
sg43
I21
sg44
S'Cl'
p1230
sbsg46
(lp1231
sbag2
(g19
g4
NtRp1232
(dp1233
g22
I186
sg23
F2.5588867798036485
sg24
F-4.4364902413750853
sg25
F1.7501546695828938
sg26
I49
sg27
S'Cl'
p1234
sg29
I344
sS'y'
F2.764993
sS'x'
F47999.981263000001
sS'z'
F-0.26478299999999999
sg30
g1227
sg46
(lp1235
sbag2
(g19
g4
NtRp1236
(dp1237
g22
I187
sg23
F1.9026759052856133
sg24
F1.8930824709770993
sg25
F3.061968889123035
sg26
I49
sg27
S'Cl'
p1238
sg29
I344
sS'y'
F0.878054
sS'x'
F48000.269035999998
sS'z'
F2.9329499999999999
sg30
g1227
sg46
(lp1239
sbag2
(g19
g4
NtRp1240
(dp1241
g22
I188
sg23
F-9.5550646847978573
sg24
F-12.790884324280535
sg25
F-8.3670882251975591
sg26
I49
sg27
S'Cs'
p1242
sg29
I352
sS'y'
F4.1102189999999998
sS'x'
F48003.397304999999
sS'z'
F3.0445259999999998
sg30
g2
(g31
g4
NtRp1243
(dp1244
g34
I0
sg35
g36
sg22
I352
sg37
S'Cesium Ion Cs+'
p1245
sg39
F6.2000000000000002
sg27
I55
sg40
F0.01
sg41
F1
sg42
F132.905
sg43
I72
sg44
S'Cs'
p1246
sbsg46
(lp1247
sbag2
(g19
g4
NtRp1248
(dp1249
g22
I189
sg23
F23.787392864616393
sg24
F4.6667589787253219
sg25
F2.0779969329948624
sg26
I50
sg27
S'Pb'
p1250
sg29
I356
sS'y'
F0.44615899999999997
sS'x'
F49000.177730000003
sS'z'
F0.54408000000000001
sg30
g2
(g31
g4
NtRp1251
(dp1252
g34
I0
sg35
g36
sg22
I356
sg37
S'Barium Ion Ba+2'
p1253
sg39
F3.8166099999999998
sg27
I56
sg40
F0.047095999999999999
sg41
F2
sg42
F137.33000000000001
sg43
I76
sg44
S'Ba'
p1254
sbsg46
(lp1255
sbag2
(g19
g4
NtRp1256
(dp1257
g22
I190
sg23
F-11.775427789389887
sg24
F-0.29027366224925943
sg25
F4.4877046932914677
sg26
I50
sg27
S'Cl'
p1258
sg29
I344
sS'y'
F0.25622099999999998
sS'x'
F49002.471921999997
sS'z'
F-0.70963799999999999
sg30
g2
(g31
g4
NtRp1259
(dp1260
g34
I0
sg35
g36
sg22
I344
sg37
S'Chloride Ion Cl-'
p1261
sg39
F4.0199999999999996
sg27
I17
sg40
F0.70999999999999996
sg41
F-1
sg42
F35.453000000000003
sg43
I21
sg44
S'Cl'
p1262
sbsg46
(lp1263
sbag2
(g19
g4
NtRp1264
(dp1265
g22
I191
sg23
F1.3577781682833832
sg24
F2.5812704139868869
sg25
F4.4766362538742399
sg26
I50
sg27
S'Cl'
p1266
sg29
I344
sS'y'
F3.0501200000000002
sS'x'
F49000.335911000002
sS'z'
F0.50904199999999999
sg30
g1259
sg46
(lp1267
sbag2
(g19
g4
NtRp1268
(dp1269
g22
I192
sg23
F-2.6484671012135128
sg24
F5.2915616965071779
sg25
F-2.8453176193707255
sg26
I50
sg27
S'Cl'
p1270
sg29
I344
sS'y'
F0.325044
sS'x'
F49001.428674000003
sS'z'
F2.8793700000000002
sg30
g1259
sg46
(lp1271
sbag2
(g19
g4
NtRp1272
(dp1273
g22
I193
sg23
F-11.420350549279286
sg24
F-12.158175504316116
sg25
F-8.4780987185403571
sg26
I50
sg27
S'Cs'
p1274
sg29
I352
sS'y'
F4.0990419999999999
sS'x'
F49003.469965999997
sS'z'
F3.0383779999999998
sg30
g2
(g31
g4
NtRp1275
(dp1276
g34
I0
sg35
g36
sg22
I352
sg37
S'Cesium Ion Cs+'
p1277
sg39
F6.2000000000000002
sg27
I55
sg40
F0.01
sg41
F1
sg42
F132.905
sg43
I72
sg44
S'Cs'
p1278
sbsg46
(lp1279
sbag2
(g19
g4
NtRp1280
(dp1281
g22
I194
sg23
F20.703641188859084
sg24
F14.216733268574265
sg25
F11.145682196498422
sg26
I51
sg27
S'Pb'
p1282
sg29
I356
sS'y'
F0.43864599999999998
sS'x'
F50000.249180999999
sS'z'
F0.35875499999999999
sg30
g2
(g31
g4
NtRp1283
(dp1284
g34
I0
sg35
g36
sg22
I356
sg37
S'Barium Ion Ba+2'
p1285
sg39
F3.8166099999999998
sg27
I56
sg40
F0.047095999999999999
sg41
F2
sg42
F137.33000000000001
sg43
I76
sg44
S'Ba'
p1286
sbsg46
(lp1287
sbag2
(g19
g4
NtRp1288
(dp1289
g22
I195
sg23
F-9.4369330549946113
sg24
F2.3584047758438302
sg25
F-1.1692728149213114
sg26
I51
sg27
S'Cl'
p1290
sg29
I344
sS'y'
F-0.40944199999999997
sS'x'
F50002.703042000001
sS'z'
F0.60156100000000001
sg30
g2
(g31
g4
NtRp1291
(dp1292
g34
I0
sg35
g36
sg22
I344
sg37
S'Chloride Ion Cl-'
p1293
sg39
F4.0199999999999996
sg27
I17
sg40
F0.70999999999999996
sg41
F-1
sg42
F35.453000000000003
sg43
I21
sg44
S'Cl'
p1294
sbsg46
(lp1295
sbag2
(g19
g4
NtRp1296
(dp1297
g22
I196
sg23
F-1.8766810327255856
sg24
F-6.4710065513553037
sg25
F6.1495069734317394
sg26
I51
sg27
S'Cl'
p1298
sg29
I344
sS'y'
F2.938707
sS'x'
F50001.172844000001
sS'z'
F-0.18637000000000001
sg30
g1291
sg46
(lp1299
sbag2
(g19
g4
NtRp1300
(dp1301
g22
I197
sg23
F1.0016269015434147
sg24
F0.76872038647585439
sg25
F-6.5935693258518375
sg26
I51
sg27
S'Cl'
p1302
sg29
I344
sS'y'
F1.00667
sS'x'
F50000.084443
sS'z'
F2.9204210000000002
sg30
g1291
sg46
(lp1303
sbag2
(g19
g4
NtRp1304
(dp1305
g22
I198
sg23
F-11.645111894315443
sg24
F-11.713983988141727
sg25
F-10.228156975988348
sg26
I51
sg27
S'Cs'
p1306
sg29
I352
sS'y'
F4.0900449999999999
sS'x'
F50003.433981000002
sS'z'
F3.0031659999999998
sg30
g2
(g31
g4
NtRp1307
(dp1308
g34
I0
sg35
g36
sg22
I352
sg37
S'Cesium Ion Cs+'
p1309
sg39
F6.2000000000000002
sg27
I55
sg40
F0.01
sg41
F1
sg42
F132.905
sg43
I72
sg44
S'Cs'
p1310
sbsg46
(lp1311
sbag2
(g19
g4
NtRp1312
(dp1313
g22
I199
sg23
F15.134295530904989
sg24
F13.993736424740328
sg25
F3.4210508613605288
sg26
I52
sg27
S'Pb'
p1314
sg29
I356
sS'y'
F0.34178700000000001
sS'x'
F51000.270034000001
sS'z'
F0.41711100000000001
sg30
g2
(g31
g4
NtRp1315
(dp1316
g34
I0
sg35
g36
sg22
I356
sg37
S'Barium Ion Ba+2'
p1317
sg39
F3.8166099999999998
sg27
I56
sg40
F0.047095999999999999
sg41
F2
sg42
F137.33000000000001
sg43
I76
sg44
S'Ba'
p1318
sbsg46
(lp1319
sbag2
(g19
g4
NtRp1320
(dp1321
g22
I200
sg23
F-8.0405614883264818
sg24
F-1.5713336878551611
sg25
F4.9829247372454244
sg26
I52
sg27
S'Cl'
p1322
sg29
I344
sS'y'
F0.954565
sS'x'
F51002.623714000001
sS'z'
F-0.61931599999999998
sg30
g2
(g31
g4
NtRp1323
(dp1324
g34
I0
sg35
g36
sg22
I344
sg37
S'Chloride Ion Cl-'
p1325
sg39
F4.0199999999999996
sg27
I17
sg40
F0.70999999999999996
sg41
F-1
sg42
F35.453000000000003
sg43
I21
sg44
S'Cl'
p1326
sbsg46
(lp1327
sbag2
(g19
g4
NtRp1328
(dp1329
g22
I201
sg23
F3.0901540422378897
sg24
F-3.8625991997135154
sg25
F1.7102203449582229
sg26
I52
sg27
S'Cl'
p1330
sg29
I344
sS'y'
F2.8900459999999999
sS'x'
F50999.734912
sS'z'
F0.82510899999999998
sg30
g1323
sg46
(lp1331
sbag2
(g19
g4
NtRp1332
(dp1333
g22
I202
sg23
F-0.2901642834612787
sg24
F2.6653386876569765
sg25
F-1.9928312998346256
sg26
I52
sg27
S'Cl'
p1334
sg29
I344
sS'y'
F0.055690000000000003
sS'x'
F51001.269117000003
sS'z'
F2.8063060000000002
sg30
g1323
sg46
(lp1335
sbag2
(g19
g4
NtRp1336
(dp1337
g22
I203
sg23
F-10.652156136972545
sg24
F-12.142083366097118
sg25
F-8.4139572095660444
sg26
I52
sg27
S'Cs'
p1338
sg29
I352
sS'y'
F4.1014499999999998
sS'x'
F51003.442787
sS'z'
F3.005204
sg30
g2
(g31
g4
NtRp1339
(dp1340
g34
I0
sg35
g36
sg22
I352
sg37
S'Cesium Ion Cs+'
p1341
sg39
F6.2000000000000002
sg27
I55
sg40
F0.01
sg41
F1
sg42
F132.905
sg43
I72
sg44
S'Cs'
p1342
sbsg46
(lp1343
sbag2
(g19
g4
NtRp1344
(dp1345
g22
I204
sg23
F10.387642697701446
sg24
F20.902865613639928
sg25
F8.9351277596122731
sg26
I53
sg27
S'Pb'
p1346
sg29
I356
sS'y'
F0.29938199999999998
sS'x'
F52000.429174999997
sS'z'
F0.37076900000000002
sg30
g2
(g31
g4
NtRp1347
(dp1348
g34
I0
sg35
g36
sg22
I356
sg37
S'Barium Ion Ba+2'
p1349
sg39
F3.8166099999999998
sg27
I56
sg40
F0.047095999999999999
sg41
F2
sg42
F137.33000000000001
sg43
I76
sg44
S'Ba'
p1350
sbsg46
(lp1351
sbag2
(g19
g4
NtRp1352
(dp1353
g22
I205
sg23
F-6.0802421732223033
sg24
F3.1059054070904901
sg25
F0.96853921401741627
sg26
I53
sg27
S'Cl'
p1354
sg29
I344
sS'y'
F0.37412600000000001
sS'x'
F52003.042103
sS'z'
F0.82242400000000004
sg30
g2
(g31
g4
NtRp1355
(dp1356
g34
I0
sg35
g36
sg22
I344
sg37
S'Chloride Ion Cl-'
p1357
sg39
F4.0199999999999996
sg27
I17
sg40
F0.70999999999999996
sg41
F-1
sg42
F35.453000000000003
sg43
I21
sg44
S'Cl'
p1358
sbsg46
(lp1359
sbag2
(g19
g4
NtRp1360
(dp1361
g22
I206
sg23
F2.3047502796654573
sg24
F-11.833211432346054
sg25
F4.6246445856003557
sg26
I53
sg27
S'Cl'
p1362
sg29
I344
sS'y'
F2.9453819999999999
sS'x'
F52000.395210000002
sS'z'
F-0.17200299999999999
sg30
g1355
sg46
(lp1363
sbag2
(g19
g4
NtRp1364
(dp1365
g22
I207
sg23
F2.0906284108380873
sg24
F-0.26011428254611618
sg25
F-5.4854938236334601
sg26
I53
sg27
S'Cl'
p1366
sg29
I344
sS'y'
F0.66976800000000003
sS'x'
F51999.857544999999
sS'z'
F2.8753790000000001
sg30
g1355
sg46
(lp1367
sbag2
(g19
g4
NtRp1368
(dp1369
g22
I208
sg23
F-9.6385633826679538
sg24
F-12.235065877585852
sg25
F-9.581672550990751
sg26
I53
sg27
S'Cs'
p1370
sg29
I352
sS'y'
F4.1271659999999999
sS'x'
F52003.408697999999
sS'z'
F3.0564870000000002
sg30
g2
(g31
g4
NtRp1371
(dp1372
g34
I0
sg35
g36
sg22
I352
sg37
S'Cesium Ion Cs+'
p1373
sg39
F6.2000000000000002
sg27
I55
sg40
F0.01
sg41
F1
sg42
F132.905
sg43
I72
sg44
S'Cs'
p1374
sbsg46
(lp1375
sbag2
(g19
g4
NtRp1376
(dp1377
g22
I209
sg23
F0.91829170563884222
sg24
F19.756153616554002
sg25
F-14.979233207095557
sg26
I54
sg27
S'Pb'
p1378
sg29
I356
sS'y'
F0.23491999999999999
sS'x'
F53000.425523999998
sS'z'
F0.64988500000000005
sg30
g2
(g31
g4
NtRp1379
(dp1380
g34
I0
sg35
g36
sg22
I356
sg37
S'Barium Ion Ba+2'
p1381
sg39
F3.8166099999999998
sg27
I56
sg40
F0.047095999999999999
sg41
F2
sg42
F137.33000000000001
sg43
I76
sg44
S'Ba'
p1382
sbsg46
(lp1383
sbag2
(g19
g4
NtRp1384
(dp1385
g22
I210
sg23
F-2.9924232064248426
sg24
F-3.0524435798429601
sg25
F5.1177742485533813
sg26
I54
sg27
S'Cl'
p1386
sg29
I344
sS'y'
F0.903173
sS'x'
F53002.659135000002
sS'z'
F-0.52162900000000001
sg30
g2
(g31
g4
NtRp1387
(dp1388
g34
I0
sg35
g36
sg22
I344
sg37
S'Chloride Ion Cl-'
p1389
sg39
F4.0199999999999996
sg27
I17
sg40
F0.70999999999999996
sg41
F-1
sg42
F35.453000000000003
sg43
I21
sg44
S'Cl'
p1390
sbsg46
(lp1391
sbag2
(g19
g4
NtRp1392
(dp1393
g22
I211
sg23
F3.6852524274269864
sg24
F-12.735210536613685
sg25
F5.0980915474549038
sg26
I54
sg27
S'Cl'
p1394
sg29
I344
sS'y'
F2.528235
sS'x'
F52999.321465000001
sS'z'
F-0.091366000000000003
sg30
g1387
sg46
(lp1395
sbag2
(g19
g4
NtRp1396
(dp1397
g22
I212
sg23
F7.3555120208266329
sg24
F7.0808997584549056
sg25
F11.031001724120991
sg26
I54
sg27
S'Cl'
p1398
sg29
I344
sS'y'
F1.1931240000000001
sS'x'
F53001.161591999997
sS'z'
F2.9169100000000001
sg30
g1387
sg46
(lp1399
sbag2
(g19
g4
NtRp1400
(dp1401
g22
I213
sg23
F-9.6569370767187852
sg24
F-11.978008468976908
sg25
F-6.206348345657652
sg26
I54
sg27
S'Cs'
p1402
sg29
I352
sS'y'
F4.4323600000000001
sS'x'
F53003.701214000001
sS'z'
F3.21949
sg30
g2
(g31
g4
NtRp1403
(dp1404
g34
I0
sg35
g36
sg22
I352
sg37
S'Cesium Ion Cs+'
p1405
sg39
F6.2000000000000002
sg27
I55
sg40
F0.01
sg41
F1
sg42
F132.905
sg43
I72
sg44
S'Cs'
p1406
sbsg46
(lp1407
sbag2
(g19
g4
NtRp1408
(dp1409
g22
I214
sg23
F2.4833592118516559
sg24
F14.911448172956161
sg25
F22.207268885205014
sg26
I55
sg27
S'Pb'
p1410
sg29
I356
sS'y'
F0.36022599999999999
sS'x'
F54000.548729000002
sS'z'
F0.22644300000000001
sg30
g2
(g31
g4
NtRp1411
(dp1412
g34
I0
sg35
g36
sg22
I356
sg37
S'Barium Ion Ba+2'
p1413
sg39
F3.8166099999999998
sg27
I56
sg40
F0.047095999999999999
sg41
F2
sg42
F137.33000000000001
sg43
I76
sg44
S'Ba'
p1414
sbsg46
(lp1415
sbag2
(g19
g4
NtRp1416
(dp1417
g22
I215
sg23
F-1.402096113365213
sg24
F3.4746356933503622
sg25
F0.68662092506044914
sg26
I55
sg27
S'Cl'
p1418
sg29
I344
sS'y'
F0.97532200000000002
sS'x'
F54003.068997000002
sS'z'
F0.85893900000000001
sg30
g2
(g31
g4
NtRp1419
(dp1420
g34
I0
sg35
g36
sg22
I344
sg37
S'Chloride Ion Cl-'
p1421
sg39
F4.0199999999999996
sg27
I17
sg40
F0.70999999999999996
sg41
F-1
sg42
F35.453000000000003
sg43
I21
sg44
S'Cl'
p1422
sbsg46
(lp1423
sbag2
(g19
g4
NtRp1424
(dp1425
g22
I216
sg23
F3.4787676599453512
sg24
F-5.5410801495355431
sg25
F-2.5208705557843212
sg26
I55
sg27
S'Cl'
p1426
sg29
I344
sS'y'
F2.88713
sS'x'
F53999.864185999999
sS'z'
F0.329121
sg30
g1419
sg46
(lp1427
sbag2
(g19
g4
NtRp1428
(dp1429
g22
I217
sg23
F3.1941083236917365
sg24
F-1.3407299697402901
sg25
F-12.22978547225536
sg26
I55
sg27
S'Cl'
p1430
sg29
I344
sS'y'
F0.055695000000000001
sS'x'
F53999.877809999998
sS'z'
F2.7442859999999998
sg30
g1419
sg46
(lp1431
sbag2
(g19
g4
NtRp1432
(dp1433
g22
I218
sg23
F-7.8926593278166468
sg24
F-11.738616173963372
sg25
F-8.4375742635693332
sg26
I55
sg27
S'Cs'
p1434
sg29
I352
sS'y'
F4.477417
sS'x'
F54003.744504000002
sS'z'
F3.2052230000000002
sg30
g2
(g31
g4
NtRp1435
(dp1436
g34
I0
sg35
g36
sg22
I352
sg37
S'Cesium Ion Cs+'
p1437
sg39
F6.2000000000000002
sg27
I55
sg40
F0.01
sg41
F1
sg42
F132.905
sg43
I72
sg44
S'Cs'
p1438
sbsg46
(lp1439
sbag2
(g19
g4
NtRp1440
(dp1441
g22
I219
sg23
F10.490029565150889
sg24
F1.0294772185604564
sg25
F5.3892086077777845
sg26
I56
sg27
S'Pb'
p1442
sg29
I356
sS'y'
F0.37476300000000001
sS'x'
F55000.343352000004
sS'z'
F0.44262200000000002
sg30
g2
(g31
g4
NtRp1443
(dp1444
g34
I0
sg35
g36
sg22
I356
sg37
S'Barium Ion Ba+2'
p1445
sg39
F3.8166099999999998
sg27
I56
sg40
F0.047095999999999999
sg41
F2
sg42
F137.33000000000001
sg43
I76
sg44
S'Ba'
p1446
sbsg46
(lp1447
sbag2
(g19
g4
NtRp1448
(dp1449
g22
I220
sg23
F-2.6135860158809163
sg24
F0.84206752781788163
sg25
F0.4669077773219546
sg26
I56
sg27
S'Cl'
p1450
sg29
I344
sS'y'
F0.40940100000000001
sS'x'
F55002.941082999998
sS'z'
F0.17486399999999999
sg30
g2
(g31
g4
NtRp1451
(dp1452
g34
I0
sg35
g36
sg22
I344
sg37
S'Chloride Ion Cl-'
p1453
sg39
F4.0199999999999996
sg27
I17
sg40
F0.70999999999999996
sg41
F-1
sg42
F35.453000000000003
sg43
I21
sg44
S'Cl'
p1454
sbsg46
(lp1455
sbag2
(g19
g4
NtRp1456
(dp1457
g22
I221
sg23
F0.073480253789025521
sg24
F6.2097542093251121
sg25
F0.12769414691507991
sg26
I56
sg27
S'Cl'
p1458
sg29
I344
sS'y'
F2.8843049999999999
sS'x'
F55000.155493999999
sS'z'
F0.026232999999999999
sg30
g1451
sg46
(lp1459
sbag2
(g19
g4
NtRp1460
(dp1461
g22
I222
sg23
F0.48624039064526181
sg24
F1.8993338527294543
sg25
F0.66399747479260562
sg26
I56
sg27
S'Cl'
p1462
sg29
I344
sS'y'
F0.67259800000000003
sS'x'
F55000.555343
sS'z'
F3.0142760000000002
sg30
g1451
sg46
(lp1463
sbag2
(g19
g4
NtRp1464
(dp1465
g22
I223
sg23
F-8.6290445705198522
sg24
F-10.559774656830779
sg25
F-7.0924205816900772
sg26
I56
sg27
S'Cs'
p1466
sg29
I352
sS'y'
F4.3941160000000004
sS'x'
F55003.765131
sS'z'
F3.2426759999999999
sg30
g2
(g31
g4
NtRp1467
(dp1468
g34
I0
sg35
g36
sg22
I352
sg37
S'Cesium Ion Cs+'
p1469
sg39
F6.2000000000000002
sg27
I55
sg40
F0.01
sg41
F1
sg42
F132.905
sg43
I72
sg44
S'Cs'
p1470
sbsg46
(lp1471
sbag2
(g19
g4
NtRp1472
(dp1473
g22
I224
sg23
F5.5863982806931238
sg24
F4.1804757097832788
sg25
F10.209360553631859
sg26
I57
sg27
S'Pb'
p1474
sg29
I356
sS'y'
F0.39774700000000002
sS'x'
F56000.441127999999
sS'z'
F0.25836900000000002
sg30
g2
(g31
g4
NtRp1475
(dp1476
g34
I0
sg35
g36
sg22
I356
sg37
S'Barium Ion Ba+2'
p1477
sg39
F3.8166099999999998
sg27
I56
sg40
F0.047095999999999999
sg41
F2
sg42
F137.33000000000001
sg43
I76
sg44
S'Ba'
p1478
sbsg46
(lp1479
sbag2
(g19
g4
NtRp1480
(dp1481
g22
I225
sg23
F1.8687832512567539
sg24
F1.6321678844685799
sg25
F-1.2671159750336556
sg26
I57
sg27
S'Cl'
p1482
sg29
I344
sS'y'
F0.25993500000000003
sS'x'
F56002.960568000002
sS'z'
F0.87609700000000001
sg30
g2
(g31
g4
NtRp1483
(dp1484
g34
I0
sg35
g36
sg22
I344
sg37
S'Chloride Ion Cl-'
p1485
sg39
F4.0199999999999996
sg27
I17
sg40
F0.70999999999999996
sg41
F-1
sg42
F35.453000000000003
sg43
I21
sg44
S'Cl'
p1486
sbsg46
(lp1487
sbag2
(g19
g4
NtRp1488
(dp1489
g22
I226
sg23
F2.6604242810802536
sg24
F6.1092516414342839
sg25
F-1.0372821239309178
sg26
I57
sg27
S'Cl'
p1490
sg29
I344
sS'y'
F2.9776910000000001
sS'x'
F56000.525427
sS'z'
F0.17278299999999999
sg30
g1483
sg46
(lp1491
sbag2
(g19
g4
NtRp1492
(dp1493
g22
I227
sg23
F-1.8401046123459945
sg24
F-1.8553344402691543
sg25
F-0.31230504932717207
sg26
I57
sg27
S'Cl'
p1494
sg29
I344
sS'y'
F0.52125500000000002
sS'x'
F55999.826217000002
sS'z'
F2.7449539999999999
sg30
g1483
sg46
(lp1495
sbag2
(g19
g4
NtRp1496
(dp1497
g22
I228
sg23
F-8.628840608090707
sg24
F-10.588810277720734
sg25
F-8.2937480788520119
sg26
I57
sg27
S'Cs'
p1498
sg29
I352
sS'y'
F4.4720589999999998
sS'x'
F56003.684974999996
sS'z'
F3.2793049999999999
sg30
g2
(g31
g4
NtRp1499
(dp1500
g34
I0
sg35
g36
sg22
I352
sg37
S'Cesium Ion Cs+'
p1501
sg39
F6.2000000000000002
sg27
I55
sg40
F0.01
sg41
F1
sg42
F132.905
sg43
I72
sg44
S'Cs'
p1502
sbsg46
(lp1503
sbag2
(g19
g4
NtRp1504
(dp1505
g22
I229
sg23
F-2.1750433951431578
sg24
F11.109771594485238
sg25
F10.735046456318488
sg26
I58
sg27
S'Pb'
p1506
sg29
I356
sS'y'
F0.33080100000000001
sS'x'
F57000.397150999997
sS'z'
F0.41942499999999999
sg30
g2
(g31
g4
NtRp1507
(dp1508
g34
I0
sg35
g36
sg22
I356
sg37
S'Barium Ion Ba+2'
p1509
sg39
F3.8166099999999998
sg27
I56
sg40
F0.047095999999999999
sg41
F2
sg42
F137.33000000000001
sg43
I76
sg44
S'Ba'
p1510
sbsg46
(lp1511
sbag2
(g19
g4
NtRp1512
(dp1513
g22
I230
sg23
F6.9522904670240946
sg24
F1.5195967895056437
sg25
F0.4747682537239522
sg26
I58
sg27
S'Cl'
p1514
sg29
I344
sS'y'
F0.46142699999999998
sS'x'
F57002.942151000003
sS'z'
F0.36174499999999998
sg30
g2
(g31
g4
NtRp1515
(dp1516
g34
I0
sg35
g36
sg22
I344
sg37
S'Chloride Ion Cl-'
p1517
sg39
F4.0199999999999996
sg27
I17
sg40
F0.70999999999999996
sg41
F-1
sg42
F35.453000000000003
sg43
I21
sg44
S'Cl'
p1518
sbsg46
(lp1519
sbag2
(g19
g4
NtRp1520
(dp1521
g22
I231
sg23
F1.2338341185479029
sg24
F-2.3927982367583147
sg25
F0.74943179811174487
sg26
I58
sg27
S'Cl'
p1522
sg29
I344
sS'y'
F2.7840790000000002
sS'x'
F57000.068271999997
sS'z'
F-0.343391
sg30
g1515
sg46
(lp1523
sbag2
(g19
g4
NtRp1524
(dp1525
g22
I232
sg23
F2.4392394816573626
sg24
F-0.16100770322129299
sg25
F-5.8048343927511645
sg26
I58
sg27
S'Cl'
p1526
sg29
I344
sS'y'
F1.011789
sS'x'
F57000.325981000002
sS'z'
F2.9912920000000001
sg30
g1515
sg46
(lp1527
sbag2
(g19
g4
NtRp1528
(dp1529
g22
I233
sg23
F-8.6700592408680155
sg24
F-10.737165954481407
sg25
F-6.52714194831435
sg26
I58
sg27
S'Cs'
p1530
sg29
I352
sS'y'
F4.46157
sS'x'
F57003.740052000001
sS'z'
F3.2135940000000001
sg30
g2
(g31
g4
NtRp1531
(dp1532
g34
I0
sg35
g36
sg22
I352
sg37
S'Cesium Ion Cs+'
p1533
sg39
F6.2000000000000002
sg27
I55
sg40
F0.01
sg41
F1
sg42
F132.905
sg43
I72
sg44
S'Cs'
p1534
sbsg46
(lp1535
sbag2
(g19
g4
NtRp1536
(dp1537
g22
I234
sg23
F7.0705706162906576
sg24
F19.293474827459853
sg25
F8.0619982758019439
sg26
I59
sg27
S'Pb'
p1538
sg29
I356
sS'y'
F0.34372799999999998
sS'x'
F58000.397268000001
sS'z'
F0.33755600000000002
sg30
g2
(g31
g4
NtRp1539
(dp1540
g34
I0
sg35
g36
sg22
I356
sg37
S'Barium Ion Ba+2'
p1541
sg39
F3.8166099999999998
sg27
I56
sg40
F0.047095999999999999
sg41
F2
sg42
F137.33000000000001
sg43
I76
sg44
S'Ba'
p1542
sbsg46
(lp1543
sbag2
(g19
g4
NtRp1544
(dp1545
g22
I235
sg23
F-1.1270086382770441
sg24
F0.82416564799901981
sg25
F0.24475926446303739
sg26
I59
sg27
S'Cl'
p1546
sg29
I344
sS'y'
F0.232485
sS'x'
F58002.975259999999
sS'z'
F0.61863800000000002
sg30
g2
(g31
g4
NtRp1547
(dp1548
g34
I0
sg35
g36
sg22
I344
sg37
S'Chloride Ion Cl-'
p1549
sg39
F4.0199999999999996
sg27
I17
sg40
F0.70999999999999996
sg41
F-1
sg42
F35.453000000000003
sg43
I21
sg44
S'Cl'
p1550
sbsg46
(lp1551
sbag2
(g19
g4
NtRp1552
(dp1553
g22
I236
sg23
F1.7205519464584094
sg24
F-8.8497699650408563
sg25
F1.398015375425576
sg26
I59
sg27
S'Cl'
p1554
sg29
I344
sS'y'
F2.9932979999999998
sS'x'
F58000.466342
sS'z'
F-0.073136999999999994
sg30
g1547
sg46
(lp1555
sbag2
(g19
g4
NtRp1556
(dp1557
g22
I237
sg23
F1.10480836335905
sg24
F-1.4410710028971867
sg25
F-2.3378671009545533
sg26
I59
sg27
S'Cl'
p1558
sg29
I344
sS'y'
F0.76699200000000001
sS'x'
F58000.002648000001
sS'z'
F2.8608570000000002
sg30
g1547
sg46
(lp1559
sbag2
(g19
g4
NtRp1560
(dp1561
g22
I238
sg23
F-8.4223451732097967
sg24
F-9.7771030184581118
sg25
F-7.7453575749263432
sg26
I59
sg27
S'Cs'
p1562
sg29
I352
sS'y'
F4.432099
sS'x'
F58003.761910000001
sS'z'
F3.2299570000000002
sg30
g2
(g31
g4
NtRp1563
(dp1564
g34
I0
sg35
g36
sg22
I352
sg37
S'Cesium Ion Cs+'
p1565
sg39
F6.2000000000000002
sg27
I55
sg40
F0.01
sg41
F1
sg42
F132.905
sg43
I72
sg44
S'Cs'
p1566
sbsg46
(lp1567
sbag2
(g19
g4
NtRp1568
(dp1569
g22
I239
sg23
F1.5202974986631066
sg24
F21.726966850516082
sg25
F1.2339439775822938
sg26
I60
sg27
S'Pb'
p1570
sg29
I356
sS'y'
F0.23118900000000001
sS'x'
F59000.486924999997
sS'z'
F0.384745
sg30
g2
(g31
g4
NtRp1571
(dp1572
g34
I0
sg35
g36
sg22
I356
sg37
S'Barium Ion Ba+2'
p1573
sg39
F3.8166099999999998
sg27
I56
sg40
F0.047095999999999999
sg41
F2
sg42
F137.33000000000001
sg43
I76
sg44
S'Ba'
p1574
sbsg46
(lp1575
sbag2
(g19
g4
NtRp1576
(dp1577
g22
I240
sg23
F1.236851073929131
sg24
F1.0522368560381172
sg25
F1.4950215360065957
sg26
I60
sg27
S'Cl'
p1578
sg29
I344
sS'y'
F1.1453199999999999
sS'x'
F59002.946612
sS'z'
F0.25304500000000002
sg30
g2
(g31
g4
NtRp1579
(dp1580
g34
I0
sg35
g36
sg22
I344
sg37
S'Chloride Ion Cl-'
p1581
sg39
F4.0199999999999996
sg27
I17
sg40
F0.70999999999999996
sg41
F-1
sg42
F35.453000000000003
sg43
I21
sg44
S'Cl'
p1582
sbsg46
(lp1583
sbag2
(g19
g4
NtRp1584
(dp1585
g22
I241
sg23
F4.0381097041972209
sg24
F-11.106718895727358
sg25
F-0.4946969915802894
sg26
I60
sg27
S'Cl'
p1586
sg29
I344
sS'y'
F2.683265
sS'x'
F58999.502376999997
sS'z'
F0.13491700000000001
sg30
g1579
sg46
(lp1587
sbag2
(g19
g4
NtRp1588
(dp1589
g22
I242
sg23
F0.85356459723554412
sg24
F-1.3004288364648158
sg25
F5.2833480694251271
sg26
I60
sg27
S'Cl'
p1590
sg29
I344
sS'y'
F0.46845100000000001
sS'x'
F59000.509594000003
sS'z'
F2.9196650000000002
sg30
g1579
sg46
(lp1591
sbag2
(g19
g4
NtRp1592
(dp1593
g22
I243
sg23
F-7.9080147775285976
sg24
F-11.330711967457987
sg25
F-8.1595320445756645
sg26
I60
sg27
S'Cs'
p1594
sg29
I352
sS'y'
F4.4781620000000002
sS'x'
F59003.731144999998
sS'z'
F3.2401170000000001
sg30
g2
(g31
g4
NtRp1595
(dp1596
g34
I0
sg35
g36
sg22
I352
sg37
S'Cesium Ion Cs+'
p1597
sg39
F6.2000000000000002
sg27
I55
sg40
F0.01
sg41
F1
sg42
F132.905
sg43
I72
sg44
S'Cs'
p1598
sbsg46
(lp1599
sbag2
(g19
g4
NtRp1600
(dp1601
g22
I244
sg23
F1.0148846230772539
sg24
F3.2078947206325217
sg25
F-0.78246712929267215
sg26
I61
sg27
S'Pb'
p1602
sg29
I356
sS'y'
F0.55539099999999997
sS'x'
F60000.313372999997
sS'z'
F0.30956400000000001
sg30
g2
(g31
g4
NtRp1603
(dp1604
g34
I0
sg35
g36
sg22
I356
sg37
S'Barium Ion Ba+2'
p1605
sg39
F3.8166099999999998
sg27
I56
sg40
F0.047095999999999999
sg41
F2
sg42
F137.33000000000001
sg43
I76
sg44
S'Ba'
p1606
sbsg46
(lp1607
sbag2
(g19
g4
NtRp1608
(dp1609
g22
I245
sg23
F4.4855771305462362
sg24
F1.5374520996522301
sg25
F-1.7313249204971179
sg26
I61
sg27
S'Cl'
p1610
sg29
I344
sS'y'
F0.44303399999999998
sS'x'
F60002.838905999997
sS'z'
F-0.049250000000000002
sg30
g2
(g31
g4
NtRp1611
(dp1612
g34
I0
sg35
g36
sg22
I344
sg37
S'Chloride Ion Cl-'
p1613
sg39
F4.0199999999999996
sg27
I17
sg40
F0.70999999999999996
sg41
F-1
sg42
F35.453000000000003
sg43
I21
sg44
S'Cl'
p1614
sbsg46
(lp1615
sbag2
(g19
g4
NtRp1616
(dp1617
g22
I246
sg23
F3.7727176760556667
sg24
F5.1932869430961777
sg25
F2.8033696559356951
sg26
I61
sg27
S'Cl'
p1618
sg29
I344
sS'y'
F3.0897939999999999
sS'x'
F60000.339666
sS'z'
F0.98788100000000001
sg30
g1611
sg46
(lp1619
sbag2
(g19
g4
NtRp1620
(dp1621
g22
I247
sg23
F-1.1615992267063291
sg24
F-1.9024762650741625
sg25
F6.2767834897678707
sg26
I61
sg27
S'Cl'
p1622
sg29
I344
sS'y'
F-0.28245599999999998
sS'x'
F60000.486416
sS'z'
F2.6841059999999999
sg30
g1611
sg46
(lp1623
sbag2
(g19
g4
NtRp1624
(dp1625
g22
I248
sg23
F-8.3863508043647226
sg24
F-8.1376942454186416
sg25
F-6.8224099680884018
sg26
I61
sg27
S'Cs'
p1626
sg29
I352
sS'y'
F4.799239
sS'x'
F60003.974079
sS'z'
F3.4576220000000002
sg30
g2
(g31
g4
NtRp1627
(dp1628
g34
I0
sg35
g36
sg22
I352
sg37
S'Cesium Ion Cs+'
p1629
sg39
F6.2000000000000002
sg27
I55
sg40
F0.01
sg41
F1
sg42
F132.905
sg43
I72
sg44
S'Cs'
p1630
sbsg46
(lp1631
sbag2
(g19
g4
NtRp1632
(dp1633
g22
I249
sg23
F-10.161909103886888
sg24
F-8.1165520185611779
sg25
F7.0180613133306915
sg26
I62
sg27
S'Pb'
p1634
sg29
I356
sS'y'
F0.47776999999999997
sS'x'
F61000.536461999996
sS'z'
F0.25632700000000003
sg30
g2
(g31
g4
NtRp1635
(dp1636
g34
I0
sg35
g36
sg22
I356
sg37
S'Barium Ion Ba+2'
p1637
sg39
F3.8166099999999998
sg27
I56
sg40
F0.047095999999999999
sg41
F2
sg42
F137.33000000000001
sg43
I76
sg44
S'Ba'
p1638
sbsg46
(lp1639
sbag2
(g19
g4
NtRp1640
(dp1641
g22
I250
sg23
F16.219780847923548
sg24
F6.707999564947837
sg25
F4.0272391215578613
sg26
I62
sg27
S'Cl'
p1642
sg29
I344
sS'y'
F0.90674900000000003
sS'x'
F61002.970351000004
sS'z'
F0.819021
sg30
g2
(g31
g4
NtRp1643
(dp1644
g34
I0
sg35
g36
sg22
I344
sg37
S'Chloride Ion Cl-'
p1645
sg39
F4.0199999999999996
sg27
I17
sg40
F0.70999999999999996
sg41
F-1
sg42
F35.453000000000003
sg43
I21
sg44
S'Cl'
p1646
sbsg46
(lp1647
sbag2
(g19
g4
NtRp1648
(dp1649
g22
I251
sg23
F-0.29731819051381403
sg24
F11.535842475636391
sg25
F-0.1734975878216522
sg26
I62
sg27
S'Cl'
p1650
sg29
I344
sS'y'
F2.8991600000000002
sS'x'
F60999.863905999999
sS'z'
F0.57230700000000001
sg30
g1643
sg46
(lp1651
sbag2
(g19
g4
NtRp1652
(dp1653
g22
I252
sg23
F1.0109989624152731
sg24
F-0.7393587209618796
sg25
F-4.4969516209215001
sg26
I62
sg27
S'Cl'
p1654
sg29
I344
sS'y'
F-0.11724999999999999
sS'x'
F60999.917814
sS'z'
F2.6998359999999999
sg30
g1643
sg46
(lp1655
sbag2
(g19
g4
NtRp1656
(dp1657
g22
I253
sg23
F-6.8253635677030715
sg24
F-9.0827910360712796
sg25
F-6.4728119114477947
sg26
I62
sg27
S'Cs'
p1658
sg29
I352
sS'y'
F4.7628199999999996
sS'x'
F61003.968495000001
sS'z'
F3.478926
sg30
g2
(g31
g4
NtRp1659
(dp1660
g34
I0
sg35
g36
sg22
I352
sg37
S'Cesium Ion Cs+'
p1661
sg39
F6.2000000000000002
sg27
I55
sg40
F0.01
sg41
F1
sg42
F132.905
sg43
I72
sg44
S'Cs'
p1662
sbsg46
(lp1663
sbag2
(g19
g4
NtRp1664
(dp1665
g22
I254
sg23
F19.815679012447859
sg24
F4.1765443913243052
sg25
F6.4111328866936663
sg26
I63
sg27
S'Pb'
p1666
sg29
I356
sS'y'
F0.51003500000000002
sS'x'
F62000.239499000003
sS'z'
F0.42287799999999998
sg30
g2
(g31
g4
NtRp1667
(dp1668
g34
I0
sg35
g36
sg22
I356
sg37
S'Barium Ion Ba+2'
p1669
sg39
F3.8166099999999998
sg27
I56
sg40
F0.047095999999999999
sg41
F2
sg42
F137.33000000000001
sg43
I76
sg44
S'Ba'
p1670
sbsg46
(lp1671
sbag2
(g19
g4
NtRp1672
(dp1673
g22
I255
sg23
F-8.8229297591920428
sg24
F-0.64505378991402251
sg25
F1.2883325203195592
sg26
I63
sg27
S'Cl'
p1674
sg29
I344
sS'y'
F0.76008900000000001
sS'x'
F62002.672267000002
sS'z'
F-0.54604299999999995
sg30
g2
(g31
g4
NtRp1675
(dp1676
g34
I0
sg35
g36
sg22
I344
sg37
S'Chloride Ion Cl-'
p1677
sg39
F4.0199999999999996
sg27
I17
sg40
F0.70999999999999996
sg41
F-1
sg42
F35.453000000000003
sg43
I21
sg44
S'Cl'
p1678
sbsg46
(lp1679
sbag2
(g19
g4
NtRp1680
(dp1681
g22
I256
sg23
F0.9643979543579394
sg24
F3.1489195068842366
sg25
F2.2957664535490636
sg26
I63
sg27
S'Cl'
p1682
sg29
I344
sS'y'
F3.0328970000000002
sS'x'
F62000.175481999999
sS'z'
F1.075288
sg30
g1675
sg46
(lp1683
sbag2
(g19
g4
NtRp1684
(dp1685
g22
I257
sg23
F-3.9915179963191356
sg24
F1.6220708471731184
sg25
F-3.7293637076560442
sg26
I63
sg27
S'Cl'
p1686
sg29
I344
sS'y'
F-0.21123400000000001
sS'x'
F62001.185891000001
sS'z'
F2.7381449999999998
sg30
g1675
sg46
(lp1687
sbag2
(g19
g4
NtRp1688
(dp1689
g22
I258
sg23
F-8.0628971061692507
sg24
F-8.3574120414680664
sg25
F-6.3842621466595082
sg26
I63
sg27
S'Cs'
p1690
sg29
I352
sS'y'
F4.753876
sS'x'
F62004.027242999997
sS'z'
F3.437163
sg30
g2
(g31
g4
NtRp1691
(dp1692
g34
I0
sg35
g36
sg22
I352
sg37
S'Cesium Ion Cs+'
p1693
sg39
F6.2000000000000002
sg27
I55
sg40
F0.01
sg41
F1
sg42
F132.905
sg43
I72
sg44
S'Cs'
p1694
sbsg46
(lp1695
sbag2
(g19
g4
NtRp1696
(dp1697
g22
I259
sg23
F13.007500549088622
sg24
F5.2645112281077946
sg25
F5.8361982387518863
sg26
I64
sg27
S'Pb'
p1698
sg29
I356
sS'y'
F0.29817199999999999
sS'x'
F63000.379743999998
sS'z'
F0.50720299999999996
sg30
g2
(g31
g4
NtRp1699
(dp1700
g34
I0
sg35
g36
sg22
I356
sg37
S'Barium Ion Ba+2'
p1701
sg39
F3.8166099999999998
sg27
I56
sg40
F0.047095999999999999
sg41
F2
sg42
F137.33000000000001
sg43
I76
sg44
S'Ba'
p1702
sbsg46
(lp1703
sbag2
(g19
g4
NtRp1704
(dp1705
g22
I260
sg23
F-4.9445103806514075
sg24
F-0.17537889206561877
sg25
F0.83239917151198073
sg26
I64
sg27
S'Cl'
p1706
sg29
I344
sS'y'
F0.37721700000000002
sS'x'
F63002.998777000001
sS'z'
F0.96189499999999994
sg30
g2
(g31
g4
NtRp1707
(dp1708
g34
I0
sg35
g36
sg22
I344
sg37
S'Chloride Ion Cl-'
p1709
sg39
F4.0199999999999996
sg27
I17
sg40
F0.70999999999999996
sg41
F-1
sg42
F35.453000000000003
sg43
I21
sg44
S'Cl'
p1710
sbsg46
(lp1711
sbag2
(g19
g4
NtRp1712
(dp1713
g22
I261
sg23
F-1.2768511958693931
sg24
F3.4760427346985665
sg25
F-3.8573109100413356
sg26
I64
sg27
S'Cl'
p1714
sg29
I344
sS'y'
F2.5161030000000002
sS'x'
F63000.487309999997
sS'z'
F-0.71509800000000001
sg30
g1707
sg46
(lp1715
sbag2
(g19
g4
NtRp1716
(dp1717
g22
I262
sg23
F-0.01528112061136693
sg24
F0.34573257581420702
sg25
F3.1501311780637633
sg26
I64
sg27
S'Cl'
p1718
sg29
I344
sS'y'
F1.4643250000000001
sS'x'
F62999.866075999998
sS'z'
F2.7491620000000001
sg30
g1707
sg46
(lp1719
sbag2
(g19
g4
NtRp1720
(dp1721
g22
I263
sg23
F-7.0331853423767665
sg24
F-9.6606168444796303
sg25
F-6.1945219244376011
sg26
I64
sg27
S'Cs'
p1722
sg29
I352
sS'y'
F4.7365000000000004
sS'x'
F63004.004376999997
sS'z'
F3.495835
sg30
g2
(g31
g4
NtRp1723
(dp1724
g34
I0
sg35
g36
sg22
I352
sg37
S'Cesium Ion Cs+'
p1725
sg39
F6.2000000000000002
sg27
I55
sg40
F0.01
sg41
F1
sg42
F132.905
sg43
I72
sg44
S'Cs'
p1726
sbsg46
(lp1727
sbag2
(g19
g4
NtRp1728
(dp1729
g22
I264
sg23
F12.900370433697292
sg24
F4.8710678801591989
sg25
F4.4391561271440381
sg26
I65
sg27
S'Pb'
p1730
sg29
I356
sS'y'
F0.36165700000000001
sS'x'
F64000.378242999999
sS'z'
F0.32255400000000001
sg30
g2
(g31
g4
NtRp1731
(dp1732
g34
I0
sg35
g36
sg22
I356
sg37
S'Barium Ion Ba+2'
p1733
sg39
F3.8166099999999998
sg27
I56
sg40
F0.047095999999999999
sg41
F2
sg42
F137.33000000000001
sg43
I76
sg44
S'Ba'
p1734
sbsg46
(lp1735
sbag2
(g19
g4
NtRp1736
(dp1737
g22
I265
sg23
F-3.485317580653251
sg24
F0.6637828615652962
sg25
F-2.6556835138185897
sg26
I65
sg27
S'Cl'
p1738
sg29
I344
sS'y'
F0.00762
sS'x'
F64002.880785000001
sS'z'
F1.0479430000000001
sg30
g2
(g31
g4
NtRp1739
(dp1740
g34
I0
sg35
g36
sg22
I344
sg37
S'Chloride Ion Cl-'
p1741
sg39
F4.0199999999999996
sg27
I17
sg40
F0.70999999999999996
sg41
F-1
sg42
F35.453000000000003
sg43
I21
sg44
S'Cl'
p1742
sbsg46
(lp1743
sbag2
(g19
g4
NtRp1744
(dp1745
g22
I266
sg23
F0.95803625941224213
sg24
F2.2990332093970562
sg25
F-0.32383145290705168
sg26
I65
sg27
S'Cl'
p1746
sg29
I344
sS'y'
F2.8764729999999998
sS'x'
F64000.796225999999
sS'z'
F-0.16758700000000001
sg30
g1739
sg46
(lp1747
sbag2
(g19
g4
NtRp1748
(dp1749
g22
I267
sg23
F-3.5961156200988955
sg24
F0.49592863033834261
sg25
F4.75154514370222
sg26
I65
sg27
S'Cl'
p1750
sg29
I344
sS'y'
F0.83623800000000004
sS'x'
F63999.720142999999
sS'z'
F2.725349
sg30
g1739
sg46
(lp1751
sbag2
(g19
g4
NtRp1752
(dp1753
g22
I268
sg23
F-6.8729094955535759
sg24
F-8.6782089252156744
sg25
F-6.388646641046555
sg26
I65
sg27
S'Cs'
p1754
sg29
I352
sS'y'
F4.7783439999999997
sS'x'
F64004.017401999998
sS'z'
F3.4665979999999998
sg30
g2
(g31
g4
NtRp1755
(dp1756
g34
I0
sg35
g36
sg22
I352
sg37
S'Cesium Ion Cs+'
p1757
sg39
F6.2000000000000002
sg27
I55
sg40
F0.01
sg41
F1
sg42
F132.905
sg43
I72
sg44
S'Cs'
p1758
sbsg46
(lp1759
sbag2
(g19
g4
NtRp1760
(dp1761
g22
I269
sg23
F20.2937920756981
sg24
F8.6116408497094934
sg25
F9.0979046479205294
sg26
I66
sg27
S'Pb'
p1762
sg29
I356
sS'y'
F0.40095999999999998
sS'x'
F65000.228436999998
sS'z'
F0.37376300000000001
sg30
g2
(g31
g4
NtRp1763
(dp1764
g34
I0
sg35
g36
sg22
I356
sg37
S'Barium Ion Ba+2'
p1765
sg39
F3.8166099999999998
sg27
I56
sg40
F0.047095999999999999
sg41
F2
sg42
F137.33000000000001
sg43
I76
sg44
S'Ba'
p1766
sbsg46
(lp1767
sbag2
(g19
g4
NtRp1768
(dp1769
g22
I270
sg23
F-8.3073208028998184
sg24
F-1.2732111047625914
sg25
F-1.6743758651680809
sg26
I66
sg27
S'Cl'
p1770
sg29
I344
sS'y'
F-0.26539800000000002
sS'x'
F65002.758374999998
sS'z'
F0.51822199999999996
sg30
g2
(g31
g4
NtRp1771
(dp1772
g34
I0
sg35
g36
sg22
I344
sg37
S'Chloride Ion Cl-'
p1773
sg39
F4.0199999999999996
sg27
I17
sg40
F0.70999999999999996
sg41
F-1
sg42
F35.453000000000003
sg43
I21
sg44
S'Cl'
p1774
sbsg46
(lp1775
sbag2
(g19
g4
NtRp1776
(dp1777
g22
I271
sg23
F-2.3306014743574597
sg24
F1.3182484838687114
sg25
F-0.59311886758973897
sg26
I66
sg27
S'Cl'
p1778
sg29
I344
sS'y'
F2.7998050000000001
sS'x'
F65000.960988999999
sS'z'
F-0.30512400000000001
sg30
g1771
sg46
(lp1779
sbag2
(g19
g4
NtRp1780
(dp1781
g22
I272
sg23
F-1.8852520710441161
sg24
F0.092287026937898003
sg25
F-0.64177245354785506
sg26
I66
sg27
S'Cl'
p1782
sg29
I344
sS'y'
F1.114163
sS'x'
F65000.266330999999
sS'z'
F2.879902
sg30
g1771
sg46
(lp1783
sbag2
(g19
g4
NtRp1784
(dp1785
g22
I273
sg23
F-7.4452286693699614
sg24
F-8.5286457939575335
sg25
F-6.1205171063880615
sg26
I66
sg27
S'Cs'
p1786
sg29
I352
sS'y'
F4.7342110000000002
sS'x'
F65004.020753999997
sS'z'
F3.4319549999999999
sg30
g2
(g31
g4
NtRp1787
(dp1788
g34
I0
sg35
g36
sg22
I352
sg37
S'Cesium Ion Cs+'
p1789
sg39
F6.2000000000000002
sg27
I55
sg40
F0.01
sg41
F1
sg42
F132.905
sg43
I72
sg44
S'Cs'
p1790
sbsg46
(lp1791
sbag2
(g19
g4
NtRp1792
(dp1793
g22
I274
sg23
F6.9956963731836455
sg24
F12.169013695817343
sg25
F26.17498075628782
sg26
I67
sg27
S'Pb'
p1794
sg29
I356
sS'y'
F0.416912
sS'x'
F66000.357002999997
sS'z'
F0.30551699999999998
sg30
g2
(g31
g4
NtRp1795
(dp1796
g34
I0
sg35
g36
sg22
I356
sg37
S'Barium Ion Ba+2'
p1797
sg39
F3.8166099999999998
sg27
I56
sg40
F0.047095999999999999
sg41
F2
sg42
F137.33000000000001
sg43
I76
sg44
S'Ba'
p1798
sbsg46
(lp1799
sbag2
(g19
g4
NtRp1800
(dp1801
g22
I275
sg23
F1.2480670640162987
sg24
F0.62612222858926381
sg25
F-0.87784416124108189
sg26
I67
sg27
S'Cl'
p1802
sg29
I344
sS'y'
F1.0487869999999999
sS'x'
F66002.735031999997
sS'z'
F-0.40296500000000002
sg30
g2
(g31
g4
NtRp1803
(dp1804
g34
I0
sg35
g36
sg22
I344
sg37
S'Chloride Ion Cl-'
p1805
sg39
F4.0199999999999996
sg27
I17
sg40
F0.70999999999999996
sg41
F-1
sg42
F35.453000000000003
sg43
I21
sg44
S'Cl'
p1806
sbsg46
(lp1807
sbag2
(g19
g4
NtRp1808
(dp1809
g22
I276
sg23
F3.4012519963630594
sg24
F-8.0462797432026978
sg25
F-3.1660836795993443
sg26
I67
sg27
S'Cl'
p1810
sg29
I344
sS'y'
F2.9202210000000002
sS'x'
F65999.748363000006
sS'z'
F1.0089669999999999
sg30
g1803
sg46
(lp1811
sbag2
(g19
g4
NtRp1812
(dp1813
g22
I277
sg23
F-4.1967982998747777
sg24
F3.3672301856946705
sg25
F-16.546967278537053
sg26
I67
sg27
S'Cl'
p1814
sg29
I344
sS'y'
F-0.17688200000000001
sS'x'
F66001.090505999993
sS'z'
F2.8592629999999999
sg30
g1803
sg46
(lp1815
sbag2
(g19
g4
NtRp1816
(dp1817
g22
I278
sg23
F-7.4307823237411137
sg24
F-8.3309416443278828
sg25
F-5.8983686848352512
sg26
I67
sg27
S'Cs'
p1818
sg29
I352
sS'y'
F4.7609279999999998
sS'x'
F66004.024499000006
sS'z'
F3.478723
sg30
g2
(g31
g4
NtRp1819
(dp1820
g34
I0
sg35
g36
sg22
I352
sg37
S'Cesium Ion Cs+'
p1821
sg39
F6.2000000000000002
sg27
I55
sg40
F0.01
sg41
F1
sg42
F132.905
sg43
I72
sg44
S'Cs'
p1822
sbsg46
(lp1823
sbag2
(g19
g4
NtRp1824
(dp1825
g22
I279
sg23
F19.929480568675796
sg24
F27.519810318086076
sg25
F6.570480987572477
sg26
I68
sg27
S'Pb'
p1826
sg29
I356
sS'y'
F0.27385300000000001
sS'x'
F67000.326140000005
sS'z'
F0.48713000000000001
sg30
g2
(g31
g4
NtRp1827
(dp1828
g34
I0
sg35
g36
sg22
I356
sg37
S'Barium Ion Ba+2'
p1829
sg39
F3.8166099999999998
sg27
I56
sg40
F0.047095999999999999
sg41
F2
sg42
F137.33000000000001
sg43
I76
sg44
S'Ba'
p1830
sbsg46
(lp1831
sbag2
(g19
g4
NtRp1832
(dp1833
g22
I280
sg23
F-13.128925226155689
sg24
F-3.2122989632262766
sg25
F4.0227768592687738
sg26
I68
sg27
S'Cl'
p1834
sg29
I344
sS'y'
F0.61711199999999999
sS'x'
F67002.848570000002
sS'z'
F-0.31534800000000002
sg30
g2
(g31
g4
NtRp1835
(dp1836
g34
I0
sg35
g36
sg22
I344
sg37
S'Chloride Ion Cl-'
p1837
sg39
F4.0199999999999996
sg27
I17
sg40
F0.70999999999999996
sg41
F-1
sg42
F35.453000000000003
sg43
I21
sg44
S'Cl'
p1838
sbsg46
(lp1839
sbag2
(g19
g4
NtRp1840
(dp1841
g22
I281
sg23
F1.5602134067272879
sg24
F-13.820515933168451
sg25
F1.6391072719715007
sg26
I68
sg27
S'Cl'
p1842
sg29
I344
sS'y'
F2.840843
sS'x'
F66999.733869999996
sS'z'
F0.073934
sg30
g1835
sg46
(lp1843
sbag2
(g19
g4
NtRp1844
(dp1845
g22
I282
sg23
F-1.4074807286093605
sg24
F-1.6429082657842429
sg25
F-6.6942892259947131
sg26
I68
sg27
S'Cl'
p1846
sg29
I344
sS'y'
F0.815465
sS'x'
F67000.987064999994
sS'z'
F3.0135160000000001
sg30
g1835
sg46
(lp1847
sbag2
(g19
g4
NtRp1848
(dp1849
g22
I283
sg23
F-7.5349880847454695
sg24
F-9.4019942665735776
sg25
F-5.5416497846252168
sg26
I68
sg27
S'Cs'
p1850
sg29
I352
sS'y'
F4.8155780000000004
sS'x'
F67003.978503000006
sS'z'
F3.4794260000000001
sg30
g2
(g31
g4
NtRp1851
(dp1852
g34
I0
sg35
g36
sg22
I352
sg37
S'Cesium Ion Cs+'
p1853
sg39
F6.2000000000000002
sg27
I55
sg40
F0.01
sg41
F1
sg42
F132.905
sg43
I72
sg44
S'Cs'
p1854
sbsg46
(lp1855
sbasS'xy'
p1856
F0
sS'box_size'
p1857
(lp1858
F1000
aF100
aF100
asS'yz'
p1859
F0
sS'periodic'
p1860
I00
sS'angles'
p1861
(lp1862
sS'box_angles'
p1863
(lp1864
F90
aF90
aF90
asS'ylo'
p1865
F-50
sS'molecules'
p1866
(lp1867
g2
(cstructures
Molecule
p1868
g4
NtRp1869
(dp1870
g11
S'ts_6_high'
p1871
sg1861
(lp1872
sg13
(lp1873
sS'energy'
p1874
I0
sS'filename'
p1875
S'set2/ts_6_high/ts_6_high.cml'
p1876
sS'dihedrals'
p1877
(lp1878
sg17
(lp1879
g20
asbag2
(g1868
g4
NtRp1880
(dp1881
g11
S'ts_29_high'
p1882
sg1861
(lp1883
sg13
(lp1884
sg1874
F1.5624558088203724e-07
sg1875
S'set2/ts_29_high/ts_29_high.cml'
p1885
sg1877
(lp1886
sg17
(lp1887
g48
asbag2
(g1868
g4
NtRp1888
(dp1889
g11
S'ts_9_high'
p1890
sg1861
(lp1891
sg13
(lp1892
sg1874
F2.7107728820627335e-07
sg1875
S'set2/ts_9_high/ts_9_high.cml'
p1893
sg1877
(lp1894
sg17
(lp1895
g56
asbag2
(g1868
g4
NtRp1896
(dp1897
g11
S'ts_30_high'
p1898
sg1861
(lp1899
sg13
(lp1900
sg1874
F5.4529344350461663e-07
sg1875
S'set2/ts_30_high/ts_30_high.cml'
p1901
sg1877
(lp1902
sg17
(lp1903
g64
asbag2
(g1868
g4
NtRp1904
(dp1905
g11
S'ts_26_high'
p1906
sg1861
(lp1907
sg13
(lp1908
sg1874
F1.1972593233412989e-06
sg1875
S'set2/ts_26_high/ts_26_high.cml'
p1909
sg1877
(lp1910
sg17
(lp1911
g72
asbag2
(g1868
g4
NtRp1912
(dp1913
g11
S'ts_10_high'
p1914
sg1861
(lp1915
sg13
(lp1916
sg1874
F1.2932667453491721e-06
sg1875
S'set2/ts_10_high/ts_10_high.cml'
p1917
sg1877
(lp1918
sg17
(lp1919
g80
asbag2
(g1868
g4
NtRp1920
(dp1921
g11
S'ts_8_high'
p1922
sg1861
(lp1923
sg13
(lp1924
sg1874
F1.3986863100152271e-06
sg1875
S'set2/ts_8_high/ts_8_high.cml'
p1925
sg1877
(lp1926
sg17
(lp1927
g88
asbag2
(g1868
g4
NtRp1928
(dp1929
g11
S'ts_7_high'
p1930
sg1861
(lp1931
sg13
(lp1932
sg1874
F1.5298321007057755e-06
sg1875
S'set2/ts_7_high/ts_7_high.cml'
p1933
sg1877
(lp1934
sg17
(lp1935
g96
asbag2
(g1868
g4
NtRp1936
(dp1937
g11
S'ts_28_high'
p1938
sg1861
(lp1939
sg13
(lp1940
sg1874
F1.6584676894462742e-06
sg1875
S'set2/ts_28_high/ts_28_high.cml'
p1941
sg1877
(lp1942
sg17
(lp1943
g104
asbag2
(g1868
g4
NtRp1944
(dp1945
g11
S'ts_4_high'
p1946
sg1861
(lp1947
sg13
(lp1948
sg1874
F1.7921259113958874e-06
sg1875
S'set2/ts_4_high/ts_4_high.cml'
p1949
sg1877
(lp1950
sg17
(lp1951
g112
asbag2
(g1868
g4
NtRp1952
(dp1953
g11
S'ts_0_high'
p1954
sg1861
(lp1955
sg13
(lp1956
sg1874
F1.7921259113958874e-06
sg1875
S'set2/ts_0_high/ts_0_high.cml'
p1957
sg1877
(lp1958
sg17
(lp1959
g120
asbag2
(g1868
g4
NtRp1960
(dp1961
g11
S'ts_27_high'
p1962
sg1861
(lp1963
sg13
(lp1964
sg1874
F3.5145970626414008e-06
sg1875
S'set2/ts_27_high/ts_27_high.cml'
p1965
sg1877
(lp1966
sg17
(lp1967
g128
asbag2
(g1868
g4
NtRp1968
(dp1969
g11
S'ts_3_high'
p1970
sg1861
(lp1971
sg13
(lp1972
sg1874
I0
sg1875
S'set2/ts_3_high/ts_3_high.cml'
p1973
sg1877
(lp1974
sg17
(lp1975
g136
ag144
ag152
ag156
asbag2
(g1868
g4
NtRp1976
(dp1977
g11
S'ts_25_high'
p1978
sg1861
(lp1979
sg13
(lp1980
sg1874
F1.1334942472263159
sg1875
S'set2/ts_25_high/ts_25_high.cml'
p1981
sg1877
(lp1982
sg17
(lp1983
g160
ag168
ag176
ag180
asbag2
(g1868
g4
NtRp1984
(dp1985
g11
S'ts_24_high'
p1986
sg1861
(lp1987
sg13
(lp1988
sg1874
F1.5342377937255418
sg1875
S'set2/ts_24_high/ts_24_high.cml'
p1989
sg1877
(lp1990
sg17
(lp1991
g184
ag192
ag200
ag204
asbag2
(g1868
g4
NtRp1992
(dp1993
g11
S'ts_21_high'
p1994
sg1861
(lp1995
sg13
(lp1996
sg1874
F1.8605717808298896
sg1875
S'set2/ts_21_high/ts_21_high.cml'
p1997
sg1877
(lp1998
sg17
(lp1999
g208
ag216
ag224
ag228
asbag2
(g1868
g4
NtRp2000
(dp2001
g11
S'ts_22_high'
p2002
sg1861
(lp2003
sg13
(lp2004
sg1874
F2.0512554303131592
sg1875
S'set2/ts_22_high/ts_22_high.cml'
p2005
sg1877
(lp2006
sg17
(lp2007
g232
ag240
ag248
ag252
asbag2
(g1868
g4
NtRp2008
(dp2009
g11
S'ts_5_high'
p2010
sg1861
(lp2011
sg13
(lp2012
sg1874
F3.4497570605173995
sg1875
S'set2/ts_5_high/ts_5_high.cml'
p2013
sg1877
(lp2014
sg17
(lp2015
g256
ag264
ag272
ag276
asbag2
(g1868
g4
NtRp2016
(dp2017
g11
S'ts_34_high'
p2018
sg1861
(lp2019
sg13
(lp2020
sg1874
F6.7017447751434176
sg1875
S'set2/ts_34_high/ts_34_high.cml'
p2021
sg1877
(lp2022
sg17
(lp2023
g280
ag288
ag296
ag300
asbag2
(g1868
g4
NtRp2024
(dp2025
g11
S'ts_32_high'
p2026
sg1861
(lp2027
sg13
(lp2028
sg1874
F6.8977900650410229
sg1875
S'set2/ts_32_high/ts_32_high.cml'
p2029
sg1877
(lp2030
sg17
(lp2031
g304
ag312
ag320
ag324
asbag2
(g1868
g4
NtRp2032
(dp2033
g11
S'ts_35_high'
p2034
sg1861
(lp2035
sg13
(lp2036
sg1874
F8.4034672095055889
sg1875
S'set2/ts_35_high/ts_35_high.cml'
p2037
sg1877
(lp2038
sg17
(lp2039
g328
ag336
ag344
ag348
asbag2
(g1868
g4
NtRp2040
(dp2041
g11
S'ts_2_high'
p2042
sg1861
(lp2043
sg13
(lp2044
sg1874
I0
sg1875
S'set2/ts_2_high/ts_2_high.cml'
p2045
sg1877
(lp2046
sg17
(lp2047
g352
ag360
ag368
ag372
ag376
asbag2
(g1868
g4
NtRp2048
(dp2049
g11
S'ts_1_high'
p2050
sg1861
(lp2051
sg13
(lp2052
sg1874
F0.43088491824173347
sg1875
S'set2/ts_1_high/ts_1_high.cml'
p2053
sg1877
(lp2054
sg17
(lp2055
g384
ag392
ag400
ag404
ag408
asbag2
(g1868
g4
NtRp2056
(dp2057
g11
S'ts_16_high'
p2058
sg1861
(lp2059
sg13
(lp2060
sg1874
F3.3062442705955166
sg1875
S'set2/ts_16_high/ts_16_high.cml'
p2061
sg1877
(lp2062
sg17
(lp2063
g416
ag424
ag432
ag436
ag440
asbag2
(g1868
g4
NtRp2064
(dp2065
g11
S'ts_15_high'
p2066
sg1861
(lp2067
sg13
(lp2068
sg1874
F4.4295653917927433
sg1875
S'set2/ts_15_high/ts_15_high.cml'
p2069
sg1877
(lp2070
sg17
(lp2071
g448
ag456
ag464
ag468
ag472
asbag2
(g1868
g4
NtRp2072
(dp2073
g11
S'ts_14_high'
p2074
sg1861
(lp2075
sg13
(lp2076
sg1874
F4.4372998525075955
sg1875
S'set2/ts_14_high/ts_14_high.cml'
p2077
sg1877
(lp2078
sg17
(lp2079
g480
ag488
ag496
ag500
ag504
asbag2
(g1868
g4
NtRp2080
(dp2081
g11
S'ts_11_high'
p2082
sg1861
(lp2083
sg13
(lp2084
sg1874
F4.5849880022431604
sg1875
S'set2/ts_11_high/ts_11_high.cml'
p2085
sg1877
(lp2086
sg17
(lp2087
g512
ag520
ag528
ag532
ag536
asbag2
(g1868
g4
NtRp2088
(dp2089
g11
S'ts_62_high'
p2090
sg1861
(lp2091
sg13
(lp2092
sg1874
F5.8152415731070297
sg1875
S'set2/ts_62_high/ts_62_high.cml'
p2093
sg1877
(lp2094
sg17
(lp2095
g544
ag552
ag560
ag564
ag568
asbag2
(g1868
g4
NtRp2096
(dp2097
g11
S'ts_12_high'
p2098
sg1861
(lp2099
sg13
(lp2100
sg1874
F6.0143826363050463
sg1875
S'set2/ts_12_high/ts_12_high.cml'
p2101
sg1877
(lp2102
sg17
(lp2103
g576
ag584
ag592
ag596
ag600
asbag2
(g1868
g4
NtRp2104
(dp2105
g11
S'ts_63_high'
p2106
sg1861
(lp2107
sg13
(lp2108
sg1874
F6.4636426016380302
sg1875
S'set2/ts_63_high/ts_63_high.cml'
p2109
sg1877
(lp2110
sg17
(lp2111
g608
ag616
ag624
ag628
ag632
asbag2
(g1868
g4
NtRp2112
(dp2113
g11
S'ts_40_high'
p2114
sg1861
(lp2115
sg13
(lp2116
sg1874
F6.7318527033984665
sg1875
S'set2/ts_40_high/ts_40_high.cml'
p2117
sg1877
(lp2118
sg17
(lp2119
g640
ag648
ag656
ag660
ag664
asbag2
(g1868
g4
NtRp2120
(dp2121
g11
S'ts_61_high'
p2122
sg1861
(lp2123
sg13
(lp2124
sg1874
F7.0183306817683526
sg1875
S'set2/ts_61_high/ts_61_high.cml'
p2125
sg1877
(lp2126
sg17
(lp2127
g672
ag680
ag688
ag692
ag696
asbag2
(g1868
g4
NtRp2128
(dp2129
g11
S'ts_37_high'
p2130
sg1861
(lp2131
sg13
(lp2132
sg1874
F7.024487960929104
sg1875
S'set2/ts_37_high/ts_37_high.cml'
p2133
sg1877
(lp2134
sg17
(lp2135
g704
ag712
ag720
ag724
ag728
asbag2
(g1868
g4
NtRp2136
(dp2137
g11
S'ts_65_high'
p2138
sg1861
(lp2139
sg13
(lp2140
sg1874
F7.1419295858758476
sg1875
S'set2/ts_65_high/ts_65_high.cml'
p2141
sg1877
(lp2142
sg17
(lp2143
g736
ag744
ag752
ag756
ag760
asbag2
(g1868
g4
NtRp2144
(dp2145
g11
S'ts_64_high'
p2146
sg1861
(lp2147
sg13
(lp2148
sg1874
F7.7137183543167316
sg1875
S'set2/ts_64_high/ts_64_high.cml'
p2149
sg1877
(lp2150
sg17
(lp2151
g768
ag776
ag784
ag788
ag792
asbag2
(g1868
g4
NtRp2152
(dp2153
g11
S'ts_39_high'
p2154
sg1861
(lp2155
sg13
(lp2156
sg1874
F12.01345324217298
sg1875
S'set2/ts_39_high/ts_39_high.cml'
p2157
sg1877
(lp2158
sg17
(lp2159
g800
ag808
ag816
ag820
ag824
asbag2
(g1868
g4
NtRp2160
(dp2161
g11
S'ts_20_high'
p2162
sg1861
(lp2163
sg13
(lp2164
sg1874
F13.084702223053732
sg1875
S'set2/ts_20_high/ts_20_high.cml'
p2165
sg1877
(lp2166
sg17
(lp2167
g832
ag840
ag848
ag852
ag856
asbag2
(g1868
g4
NtRp2168
(dp2169
g11
S'ts_70_high'
p2170
sg1861
(lp2171
sg13
(lp2172
sg1874
F14.770462628954609
sg1875
S'set2/ts_70_high/ts_70_high.cml'
p2173
sg1877
(lp2174
sg17
(lp2175
g864
ag872
ag880
ag884
ag888
asbag2
(g1868
g4
NtRp2176
(dp2177
g11
S'ts_69_high'
p2178
sg1861
(lp2179
sg13
(lp2180
sg1874
F15.53798873860705
sg1875
S'set2/ts_69_high/ts_69_high.cml'
p2181
sg1877
(lp2182
sg17
(lp2183
g896
ag904
ag912
ag916
ag920
asbag2
(g1868
g4
NtRp2184
(dp2185
g11
S'ts_66_high'
p2186
sg1861
(lp2187
sg13
(lp2188
sg1874
F15.803029859555238
sg1875
S'set2/ts_66_high/ts_66_high.cml'
p2189
sg1877
(lp2190
sg17
(lp2191
g928
ag936
ag944
ag948
ag952
asbag2
(g1868
g4
NtRp2192
(dp2193
g11
S'ts_42_high'
p2194
sg1861
(lp2195
sg13
(lp2196
sg1874
F15.848457177321292
sg1875
S'set2/ts_42_high/ts_42_high.cml'
p2197
sg1877
(lp2198
sg17
(lp2199
g960
ag968
ag976
ag980
ag984
asbag2
(g1868
g4
NtRp2200
(dp2201
g11
S'ts_67_high'
p2202
sg1861
(lp2203
sg13
(lp2204
sg1874
F15.962626669009216
sg1875
S'set2/ts_67_high/ts_67_high.cml'
p2205
sg1877
(lp2206
sg17
(lp2207
g992
ag1000
ag1008
ag1012
ag1016
asbag2
(g1868
g4
NtRp2208
(dp2209
g11
S'ts_68_high'
p2210
sg1861
(lp2211
sg13
(lp2212
sg1874
F16.378275432790733
sg1875
S'set2/ts_68_high/ts_68_high.cml'
p2213
sg1877
(lp2214
sg17
(lp2215
g1024
ag1032
ag1040
ag1044
ag1048
asbag2
(g1868
g4
NtRp2216
(dp2217
g11
S'ts_36_high'
p2218
sg1861
(lp2219
sg13
(lp2220
sg1874
F17.172026071465702
sg1875
S'set2/ts_36_high/ts_36_high.cml'
p2221
sg1877
(lp2222
sg17
(lp2223
g1056
ag1064
ag1072
ag1076
ag1080
asbag2
(g1868
g4
NtRp2224
(dp2225
g11
S'ts_44_high'
p2226
sg1861
(lp2227
sg13
(lp2228
sg1874
F18.69116930302809
sg1875
S'set2/ts_44_high/ts_44_high.cml'
p2229
sg1877
(lp2230
sg17
(lp2231
g1088
ag1096
ag1104
ag1108
ag1112
asbag2
(g1868
g4
NtRp2232
(dp2233
g11
S'ts_73_high'
p2234
sg1861
(lp2235
sg13
(lp2236
sg1874
F23.223874535844185
sg1875
S'set2/ts_73_high/ts_73_high.cml'
p2237
sg1877
(lp2238
sg17
(lp2239
g1120
ag1128
ag1136
ag1140
ag1144
asbag2
(g1868
g4
NtRp2240
(dp2241
g11
S'ts_71_high'
p2242
sg1861
(lp2243
sg13
(lp2244
sg1874
F24.224728041581848
sg1875
S'set2/ts_71_high/ts_71_high.cml'
p2245
sg1877
(lp2246
sg17
(lp2247
g1152
ag1160
ag1168
ag1172
ag1176
asbag2
(g1868
g4
NtRp2248
(dp2249
g11
S'ts_75_high'
p2250
sg1861
(lp2251
sg13
(lp2252
sg1874
F24.418042628824487
sg1875
S'set2/ts_75_high/ts_75_high.cml'
p2253
sg1877
(lp2254
sg17
(lp2255
g1184
ag1192
ag1200
ag1204
ag1208
asbag2
(g1868
g4
NtRp2256
(dp2257
g11
S'ts_72_high'
p2258
sg1861
(lp2259
sg13
(lp2260
sg1874
F25.163211692490627
sg1875
S'set2/ts_72_high/ts_72_high.cml'
p2261
sg1877
(lp2262
sg17
(lp2263
g1216
ag1224
ag1232
ag1236
ag1240
asbag2
(g1868
g4
NtRp2264
(dp2265
g11
S'ts_74_high'
p2266
sg1861
(lp2267
sg13
(lp2268
sg1874
F25.254863907730421
sg1875
S'set2/ts_74_high/ts_74_high.cml'
p2269
sg1877
(lp2270
sg17
(lp2271
g1248
ag1256
ag1264
ag1268
ag1272
asbag2
(g1868
g4
NtRp2272
(dp2273
g11
S'ts_50_high'
p2274
sg1861
(lp2275
sg13
(lp2276
sg1874
F25.457696423729978
sg1875
S'set2/ts_50_high/ts_50_high.cml'
p2277
sg1877
(lp2278
sg17
(lp2279
g1280
ag1288
ag1296
ag1300
ag1304
asbag2
(g1868
g4
NtRp2280
(dp2281
g11
S'ts_48_high'
p2282
sg1861
(lp2283
sg13
(lp2284
sg1874
F26.857549122917067
sg1875
S'set2/ts_48_high/ts_48_high.cml'
p2285
sg1877
(lp2286
sg17
(lp2287
g1312
ag1320
ag1328
ag1332
ag1336
asbag2
(g1868
g4
NtRp2288
(dp2289
g11
S'ts_47_high'
p2290
sg1861
(lp2291
sg13
(lp2292
sg1874
F26.922595246310486
sg1875
S'set2/ts_47_high/ts_47_high.cml'
p2293
sg1877
(lp2294
sg17
(lp2295
g1344
ag1352
ag1360
ag1364
ag1368
asbag2
(g1868
g4
NtRp2296
(dp2297
g11
S'ts_55_high'
p2298
sg1861
(lp2299
sg13
(lp2300
sg1874
F32.381256662073653
sg1875
S'set2/ts_55_high/ts_55_high.cml'
p2301
sg1877
(lp2302
sg17
(lp2303
g1376
ag1384
ag1392
ag1396
ag1400
asbag2
(g1868
g4
NtRp2304
(dp2305
g11
S'ts_52_high'
p2306
sg1861
(lp2307
sg13
(lp2308
sg1874
F33.087004861289167
sg1875
S'set2/ts_52_high/ts_52_high.cml'
p2309
sg1877
(lp2310
sg17
(lp2311
g1408
ag1416
ag1424
ag1428
ag1432
asbag2
(g1868
g4
NtRp2312
(dp2313
g11
S'ts_78_high'
p2314
sg1861
(lp2315
sg13
(lp2316
sg1874
F33.671440493632858
sg1875
S'set2/ts_78_high/ts_78_high.cml'
p2317
sg1877
(lp2318
sg17
(lp2319
g1440
ag1448
ag1456
ag1460
ag1464
asbag2
(g1868
g4
NtRp2320
(dp2321
g11
S'ts_77_high'
p2322
sg1861
(lp2323
sg13
(lp2324
sg1874
F34.061908692045165
sg1875
S'set2/ts_77_high/ts_77_high.cml'
p2325
sg1877
(lp2326
sg17
(lp2327
g1472
ag1480
ag1488
ag1492
ag1496
asbag2
(g1868
g4
NtRp2328
(dp2329
g11
S'ts_80_high'
p2330
sg1861
(lp2331
sg13
(lp2332
sg1874
F34.266156752639191
sg1875
S'set2/ts_80_high/ts_80_high.cml'
p2333
sg1877
(lp2334
sg17
(lp2335
g1504
ag1512
ag1520
ag1524
ag1528
asbag2
(g1868
g4
NtRp2336
(dp2337
g11
S'ts_79_high'
p2338
sg1861
(lp2339
sg13
(lp2340
sg1874
F34.77083126535998
sg1875
S'set2/ts_79_high/ts_79_high.cml'
p2341
sg1877
(lp2342
sg17
(lp2343
g1536
ag1544
ag1552
ag1556
ag1560
asbag2
(g1868
g4
NtRp2344
(dp2345
g11
S'ts_76_high'
p2346
sg1861
(lp2347
sg13
(lp2348
sg1874
F34.828737432176624
sg1875
S'set2/ts_76_high/ts_76_high.cml'
p2349
sg1877
(lp2350
sg17
(lp2351
g1568
ag1576
ag1584
ag1588
ag1592
asbag2
(g1868
g4
NtRp2352
(dp2353
g11
S'ts_81_high'
p2354
sg1861
(lp2355
sg13
(lp2356
sg1874
F39.227888044633026
sg1875
S'set2/ts_81_high/ts_81_high.cml'
p2357
sg1877
(lp2358
sg17
(lp2359
g1600
ag1608
ag1616
ag1620
ag1624
asbag2
(g1868
g4
NtRp2360
(dp2361
g11
S'ts_85_high'
p2362
sg1861
(lp2363
sg13
(lp2364
sg1874
F39.832424499019503
sg1875
S'set2/ts_85_high/ts_85_high.cml'
p2365
sg1877
(lp2366
sg17
(lp2367
g1632
ag1640
ag1648
ag1652
ag1656
asbag2
(g1868
g4
NtRp2368
(dp2369
g11
S'ts_57_high'
p2370
sg1861
(lp2371
sg13
(lp2372
sg1874
F40.055102123547151
sg1875
S'set2/ts_57_high/ts_57_high.cml'
p2373
sg1877
(lp2374
sg17
(lp2375
g1664
ag1672
ag1680
ag1684
ag1688
asbag2
(g1868
g4
NtRp2376
(dp2377
g11
S'ts_84_high'
p2378
sg1861
(lp2379
sg13
(lp2380
sg1874
F40.552987254049661
sg1875
S'set2/ts_84_high/ts_84_high.cml'
p2381
sg1877
(lp2382
sg17
(lp2383
g1696
ag1704
ag1712
ag1716
ag1720
asbag2
(g1868
g4
NtRp2384
(dp2385
g11
S'ts_83_high'
p2386
sg1861
(lp2387
sg13
(lp2388
sg1874
F41.460192971556637
sg1875
S'set2/ts_83_high/ts_83_high.cml'
p2389
sg1877
(lp2390
sg17
(lp2391
g1728
ag1736
ag1744
ag1748
ag1752
asbag2
(g1868
g4
NtRp2392
(dp2393
g11
S'ts_82_high'
p2394
sg1861
(lp2395
sg13
(lp2396
sg1874
F41.64788810839238
sg1875
S'set2/ts_82_high/ts_82_high.cml'
p2397
sg1877
(lp2398
sg17
(lp2399
g1760
ag1768
ag1776
ag1780
ag1784
asbag2
(g1868
g4
NtRp2400
(dp2401
g11
S'ts_59_high'
p2402
sg1861
(lp2403
sg13
(lp2404
sg1874
F42.791992609552949
sg1875
S'set2/ts_59_high/ts_59_high.cml'
p2405
sg1877
(lp2406
sg17
(lp2407
g1792
ag1800
ag1808
ag1812
ag1816
asbag2
(g1868
g4
NtRp2408
(dp2409
g11
S'ts_58_high'
p2410
sg1861
(lp2411
sg13
(lp2412
sg1874
F42.838777406724518
sg1875
S'set2/ts_58_high/ts_58_high.cml'
p2413
sg1877
(lp2414
sg17
(lp2415
g1824
ag1832
ag1840
ag1844
ag1848
asbasg1877
(lp2416
sba(dp2417
S'Cs'
p2418
(lp2419
g2
(g1868
g4
NtRp2420
(dp2421
g11
g1871
sg13
(lp2422
sg1874
I0
sg17
(lp2423
g2
(g19
g4
NtRp2424
(dp2425
g22
I1
sg23
F9.6891195519362912e-06
sg24
F2.9834567118677896e-06
sg25
F-3.5099490727856352e-07
sg26
I1
sg27
g28
sg29
I352
sS'y'
F3.093521
sS'x'
F2.8033429999999999
sS'z'
F2.5038079999999998
sg30
g32
sg46
g47
sbasg1861
(lp2426
sg1875
g1876
sg1877
(lp2427
sbag2
(g1868
g4
NtRp2428
(dp2429
g11
g1882
sg13
(lp2430
sg1874
F1.5624558088203724e-07
sg17
(lp2431
g2
(g19
g4
NtRp2432
(dp2433
g22
I1
sg23
F-5.1878470248098499e-06
sg24
F-3.0474895665740144e-06
sg25
F-4.7479175971059732e-06
sg26
I1
sg27
g50
sg29
I352
sS'y'
F3.252548
sS'x'
F2.8534220000000001
sS'z'
F2.4675699999999998
sg30
g51
sg46
g55
sbasg1861
(lp2434
sg1875
g1885
sg1877
(lp2435
sbag2
(g1868
g4
NtRp2436
(dp2437
g11
g1890
sg13
(lp2438
sg1874
F2.7107728820627335e-07
sg17
(lp2439
g2
(g19
g4
NtRp2440
(dp2441
g22
I1
sg23
F-8.6966103039898127e-06
sg24
F-2.6621066447309969e-06
sg25
F-8.9254684698842823e-06
sg26
I1
sg27
g58
sg29
I352
sS'y'
F3.2160410000000001
sS'x'
F2.6626259999999999
sS'z'
F2.5145810000000002
sg30
g59
sg46
g63
sbasg1861
(lp2442
sg1875
g1893
sg1877
(lp2443
sbag2
(g1868
g4
NtRp2444
(dp2445
g11
g1898
sg13
(lp2446
sg1874
F5.4529344350461663e-07
sg17
(lp2447
g2
(g19
g4
NtRp2448
(dp2449
g22
I1
sg23
F1.2344111435033265e-06
sg24
F2.4344342724421988e-06
sg25
F6.9297778315402883e-06
sg26
I1
sg27
g66
sg29
I352
sS'y'
F3.2665410000000001
sS'x'
F2.8546
sS'z'
F2.4970850000000002
sg30
g67
sg46
g71
sbasg1861
(lp2450
sg1875
g1901
sg1877
(lp2451
sbag2
(g1868
g4
NtRp2452
(dp2453
g11
g1906
sg13
(lp2454
sg1874
F1.1972593233412989e-06
sg17
(lp2455
g2
(g19
g4
NtRp2456
(dp2457
g22
I1
sg23
F-1.2880090144796476e-05
sg24
F-8.9290258507012949e-06
sg25
F-2.9028227466821738e-06
sg26
I1
sg27
g74
sg29
I352
sS'y'
F3.0996869999999999
sS'x'
F2.6639309999999998
sS'z'
F2.5423840000000002
sg30
g75
sg46
g79
sbasg1861
(lp2458
sg1875
g1909
sg1877
(lp2459
sbag2
(g1868
g4
NtRp2460
(dp2461
g11
g1914
sg13
(lp2462
sg1874
F1.2932667453491721e-06
sg17
(lp2463
g2
(g19
g4
NtRp2464
(dp2465
g22
I1
sg23
F2.1368000774188224e-06
sg24
F2.2198056298157803e-06
sg25
F1.8747396905655705e-06
sg26
I1
sg27
g82
sg29
I352
sS'y'
F3.0948220000000002
sS'x'
F2.7893829999999999
sS'z'
F2.5325479999999998
sg30
g83
sg46
g87
sbasg1861
(lp2466
sg1875
g1917
sg1877
(lp2467
sbag2
(g1868
g4
NtRp2468
(dp2469
g11
g1922
sg13
(lp2470
sg1874
F1.3986863100152271e-06
sg17
(lp2471
g2
(g19
g4
NtRp2472
(dp2473
g22
I1
sg23
F4.043556195337505e-07
sg24
F-3.0972928980121886e-06
sg25
F-4.4194527683351561e-06
sg26
I1
sg27
g90
sg29
I352
sS'y'
F3.1900339999999998
sS'x'
F2.818654
sS'z'
F2.2864200000000001
sg30
g91
sg46
g95
sbasg1861
(lp2474
sg1875
g1925
sg1877
(lp2475
sbag2
(g1868
g4
NtRp2476
(dp2477
g11
g1930
sg13
(lp2478
sg1874
F1.5298321007057755e-06
sg17
(lp2479
g2
(g19
g4
NtRp2480
(dp2481
g22
I1
sg23
F4.8498958471936648e-07
sg24
F-3.5063916919686229e-06
sg25
F-5.4688801093538345e-06
sg26
I1
sg27
g98
sg29
I352
sS'y'
F3.096473
sS'x'
F2.6916950000000002
sS'z'
F2.3722430000000001
sg30
g99
sg46
g103
sbasg1861
(lp2482
sg1875
g1933
sg1877
(lp2483
sbag2
(g1868
g4
NtRp2484
(dp2485
g11
g1938
sg13
(lp2486
sg1874
F1.6584676894462742e-06
sg17
(lp2487
g2
(g19
g4
NtRp2488
(dp2489
g22
I1
sg23
F4.5581906201986429e-06
sg24
F-3.0000578223471814e-06
sg25
F-5.3420001935470554e-06
sg26
I1
sg27
g106
sg29
I352
sS'y'
F3.19435
sS'x'
F2.725482
sS'z'
F2.3307920000000002
sg30
g107
sg46
g111
sbasg1861
(lp2490
sg1875
g1941
sg1877
(lp2491
sbag2
(g1868
g4
NtRp2492
(dp2493
g11
g1946
sg13
(lp2494
sg1874
F1.7921259113958874e-06
sg17
(lp2495
g2
(g19
g4
NtRp2496
(dp2497
g22
I1
sg23
F6.2017005576584034e-06
sg24
F4.9566172717040381e-07
sg25
F2.0822535715579645e-06
sg26
I1
sg27
g114
sg29
I352
sS'y'
F3.0313469999999998
sS'x'
F2.5593560000000002
sS'z'
F2.2474400000000001
sg30
g115
sg46
g119
sbasg1861
(lp2498
sg1875
g1949
sg1877
(lp2499
sbag2
(g1868
g4
NtRp2500
(dp2501
g11
g1954
sg13
(lp2502
sg1874
F1.7921259113958874e-06
sg17
(lp2503
g2
(g19
g4
NtRp2504
(dp2505
g22
I1
sg23
F6.2017005576584034e-06
sg24
F4.9566172717040381e-07
sg25
F2.0822535715579645e-06
sg26
I1
sg27
g122
sg29
I352
sS'y'
F3.0313469999999998
sS'x'
F2.5593560000000002
sS'z'
F2.2474400000000001
sg30
g123
sg46
g127
sbasg1861
(lp2506
sg1875
g1957
sg1877
(lp2507
sbag2
(g1868
g4
NtRp2508
(dp2509
g11
g1962
sg13
(lp2510
sg1874
F3.5145970626414008e-06
sg17
(lp2511
g2
(g19
g4
NtRp2512
(dp2513
g22
I1
sg23
F5.5945742315549404e-06
sg24
F2.9158664763445529e-06
sg25
F5.9657276301299077e-06
sg26
I1
sg27
g130
sg29
I352
sS'y'
F3.0603289999999999
sS'x'
F2.8394780000000002
sS'z'
F2.3665910000000001
sg30
g131
sg46
g135
sbasg1861
(lp2514
sg1875
g1965
sg1877
(lp2515
sbasS'Cl Cl Cl Pb'
p2516
(lp2517
g2
(g1868
g4
NtRp2518
(dp2519
g11
g1970
sg13
(lp2520
sg1874
I0
sg17
(lp2521
g2
(g19
g4
NtRp2522
(dp2523
g22
I1
sg23
F-0.523020703492174
sg24
F-0.60408069467546732
sg25
F-0.44329702699747442
sg26
I1
sg27
g138
sg29
I356
sS'y'
F0.42779699999999998
sS'x'
F0.40841899999999998
sS'z'
F0.43427300000000002
sg30
g139
sg46
g143
sbag2
(g19
g4
NtRp2524
(dp2525
g22
I2
sg23
F0.23282398027522491
sg24
F-0.10194837283200227
sg25
F-0.093688161848152249
sg26
I1
sg27
g146
sg29
I344
sS'y'
F0.343918
sS'x'
F2.962167
sS'z'
F0.064477999999999994
sg30
g147
sg46
g151
sbag2
(g19
g4
NtRp2526
(dp2527
g22
I3
sg23
F-0.097982624855688052
sg24
F0.21915451207030778
sg25
F-0.10435553503730764
sg26
I1
sg27
g154
sg29
I344
sS'y'
F2.9169700000000001
sS'x'
F-0.045852999999999998
sS'z'
F-0.07954
sg30
g147
sg46
g155
sbag2
(g19
g4
NtRp2528
(dp2529
g22
I4
sg23
F-0.073766995283987224
sg24
F-0.067386468750038411
sg25
F0.24929670250934324
sg26
I1
sg27
g158
sg29
I344
sS'y'
F0.47215800000000002
sS'x'
F0.32240999999999997
sS'z'
F3.01416
sg30
g147
sg46
g159
sbasg1861
(lp2530
sg1875
g1973
sg1877
(lp2531
sbag2
(g1868
g4
NtRp2532
(dp2533
g11
g1978
sg13
(lp2534
sg1874
F1.1334942472263159
sg17
(lp2535
g2
(g19
g4
NtRp2536
(dp2537
g22
I1
sg23
F6.1306790967140659
sg24
F11.975518781465615
sg25
F2.1666948200056066
sg26
I1
sg27
g162
sg29
I356
sS'y'
F0.330785
sS'x'
F0.74711099999999997
sS'z'
F0.74954500000000002
sg30
g163
sg46
g167
sbag2
(g19
g4
NtRp2538
(dp2539
g22
I2
sg23
F-8.1280888049498685
sg24
F-3.6892972109187046
sg25
F-4.9254815510487626
sg26
I1
sg27
g170
sg29
I344
sS'y'
F1.007253
sS'x'
F2.534351
sS'z'
F2.5807380000000002
sg30
g171
sg46
g175
sbag2
(g19
g4
NtRp2540
(dp2541
g22
I3
sg23
F-4.7688491618004205
sg24
F-6.0059024052387624
sg25
F4.2536847761320686
sg26
I1
sg27
g178
sg29
I344
sS'y'
F1.992192
sS'x'
F1.6708430000000001
sS'z'
F-1.064694
sg30
g171
sg46
g179
sbag2
(g19
g4
NtRp2542
(dp2543
g22
I4
sg23
F6.7136240128776992
sg24
F-3.0032261786701877
sg25
F-1.6795902443248174
sg26
I1
sg27
g182
sg29
I344
sS'y'
F1.5131509999999999
sS'x'
F-1.4820660000000001
sS'z'
F1.512116
sg30
g171
sg46
g183
sbasg1861
(lp2544
sg1875
g1981
sg1877
(lp2545
sbag2
(g1868
g4
NtRp2546
(dp2547
g11
g1986
sg13
(lp2548
sg1874
F1.5342377937255418
sg17
(lp2549
g2
(g19
g4
NtRp2550
(dp2551
g22
I1
sg23
F9.2460499376223062
sg24
F-20.572652134170013
sg25
F14.990540881558521
sg26
I1
sg27
g186
sg29
I356
sS'y'
F0.76062700000000005
sS'x'
F1.3619520000000001
sS'z'
F0.77932400000000002
sg30
g187
sg46
g191
sbag2
(g19
g4
NtRp2552
(dp2553
g22
I2
sg23
F-6.347748925521719
sg24
F-1.2066595971646694
sg25
F-3.0006003620529644
sg26
I1
sg27
g194
sg29
I344
sS'y'
F-0.26606200000000002
sS'x'
F-0.89040299999999994
sS'z'
F0.165377
sg30
g195
sg46
g199
sbag2
(g19
g4
NtRp2554
(dp2555
g22
I3
sg23
F1.1272197368121064
sg24
F0.44660327332991628
sg25
F-3.9692697738366958
sg26
I1
sg27
g202
sg29
I344
sS'y'
F1.1891510000000001
sS'x'
F0.89559500000000003
sS'z'
F3.3288319999999998
sg30
g195
sg46
g203
sbag2
(g19
g4
NtRp2556
(dp2557
g22
I4
sg23
F-3.3165250594051772
sg24
F20.77197638617135
sg25
F-8.154678845107485
sg26
I1
sg27
g206
sg29
I344
sS'y'
F3.0483440000000002
sS'x'
F1.211279
sS'z'
F-0.14433299999999999
sg30
g195
sg46
g207
sbasg1861
(lp2558
sg1875
g1989
sg1877
(lp2559
sbag2
(g1868
g4
NtRp2560
(dp2561
g11
g1994
sg13
(lp2562
sg1874
F1.8605717808298896
sg17
(lp2563
g2
(g19
g4
NtRp2564
(dp2565
g22
I1
sg23
F-11.908308023612065
sg24
F1.5137578789442598
sg25
F20.366831412293347
sg26
I1
sg27
g210
sg29
I356
sS'y'
F1.4470609999999999
sS'x'
F1.087774
sS'z'
F0.63206200000000001
sg30
g211
sg46
g215
sbag2
(g19
g4
NtRp2566
(dp2567
g22
I2
sg23
F6.733541235492333
sg24
F-7.9645005112794722
sg25
F-5.0382708604941877
sg26
I1
sg27
g218
sg29
I344
sS'y'
F-0.29819000000000001
sS'x'
F2.7010209999999999
sS'z'
F-0.173375
sg30
g219
sg46
g223
sbag2
(g19
g4
NtRp2568
(dp2569
g22
I3
sg23
F3.6271422003107054
sg24
F6.6559328985823756
sg25
F-12.69368365204541
sg26
I1
sg27
g226
sg29
I344
sS'y'
F0.54622099999999996
sS'x'
F0.75119400000000003
sS'z'
F3.1597529999999998
sg30
g219
sg46
g227
sbag2
(g19
g4
NtRp2570
(dp2571
g22
I4
sg23
F1.6973003077984388
sg24
F0.65262246741133023
sg25
F-2.7444211249151249
sg26
I1
sg27
g230
sg29
I344
sS'y'
F0.54670200000000002
sS'x'
F-1.1871370000000001
sS'z'
F-0.18879499999999999
sg30
g219
sg46
g231
sbasg1861
(lp2572
sg1875
g1997
sg1877
(lp2573
sbag2
(g1868
g4
NtRp2574
(dp2575
g11
g2002
sg13
(lp2576
sg1874
F2.0512554303131592
sg17
(lp2577
g2
(g19
g4
NtRp2578
(dp2579
g22
I1
sg23
F11.143577846848816
sg24
F-22.972860288448743
sg25
F-5.1402216393014166
sg26
I1
sg27
g234
sg29
I356
sS'y'
F0.84802699999999998
sS'x'
F1.2165090000000001
sS'z'
F1.1881029999999999
sg30
g235
sg46
g239
sbag2
(g19
g4
NtRp2580
(dp2581
g22
I2
sg23
F0.61362892653173295
sg24
F10.438174674408641
sg25
F-5.8486826260130904
sg26
I1
sg27
g242
sg29
I344
sS'y'
F3.0687549999999999
sS'x'
F1.7706120000000001
sS'z'
F0.127558
sg30
g243
sg46
g247
sbag2
(g19
g4
NtRp2582
(dp2583
g22
I3
sg23
F2.2998444783929308
sg24
F8.5978035881519901
sg25
F8.6074009581094817
sg26
I1
sg27
g250
sg29
I344
sS'y'
F-0.85550800000000005
sS'x'
F0.94629700000000005
sS'z'
F-0.89955200000000002
sg30
g243
sg46
g251
sbag2
(g19
g4
NtRp2584
(dp2585
g22
I4
sg23
F-13.45694094389891
sg24
F3.6190114317426443
sg25
F3.0013947987086071
sg26
I1
sg27
g254
sg29
I344
sS'y'
F1.0564169999999999
sS'x'
F-1.2148380000000001
sS'z'
F1.7401420000000001
sg30
g243
sg46
g255
sbasg1861
(lp2586
sg1875
g2005
sg1877
(lp2587
sbag2
(g1868
g4
NtRp2588
(dp2589
g11
g2010
sg13
(lp2590
sg1874
F3.4497570605173995
sg17
(lp2591
g2
(g19
g4
NtRp2592
(dp2593
g22
I1
sg23
F18.158211125729
sg24
F22.182330385179153
sg25
F15.250883486291826
sg26
I1
sg27
g258
sg29
I356
sS'y'
F0.28872999999999999
sS'x'
F0.29615999999999998
sS'z'
F0.34003299999999997
sg30
g259
sg46
g263
sbag2
(g19
g4
NtRp2594
(dp2595
g22
I2
sg23
F-10.948908581799712
sg24
F-5.3132693121274119
sg25
F-2.7882859936755451
sg26
I1
sg27
g266
sg29
I344
sS'y'
F0.429641
sS'x'
F2.9197389999999999
sS'z'
F0.132078
sg30
g267
sg46
g271
sbag2
(g19
g4
NtRp2596
(dp2597
g22
I3
sg23
F-3.4663680592985409
sg24
F-11.650604975286496
sg25
F-2.552330422608057
sg26
I1
sg27
g274
sg29
I344
sS'y'
F2.8890069999999999
sS'x'
F0.042340000000000003
sS'z'
F0.00091600000000000004
sg30
g267
sg46
g275
sbag2
(g19
g4
NtRp2598
(dp2599
g22
I4
sg23
F-4.215349867709631
sg24
F-5.6564744412045407
sg25
F-10.280724563075621
sg26
I1
sg27
g278
sg29
I344
sS'y'
F0.55346499999999998
sS'x'
F0.388905
sS'z'
F2.9603440000000001
sg30
g267
sg46
g279
sbasg1861
(lp2600
sg1875
g2013
sg1877
(lp2601
sbag2
(g1868
g4
NtRp2602
(dp2603
g11
g2018
sg13
(lp2604
sg1874
F6.7017447751434176
sg17
(lp2605
g2
(g19
g4
NtRp2606
(dp2607
g22
I1
sg23
F21.293497814917082
sg24
F-30.460910011599232
sg25
F18.916669668570901
sg26
I1
sg27
g282
sg29
I356
sS'y'
F0.93635400000000002
sS'x'
F0.16390199999999999
sS'z'
F0.67796000000000001
sg30
g283
sg46
g287
sbag2
(g19
g4
NtRp2608
(dp2609
g22
I2
sg23
F-17.865119440391183
sg24
F12.269438947593494
sg25
F1.988304870696155
sg26
I1
sg27
g290
sg29
I344
sS'y'
F-1.076973
sS'x'
F1.925548
sS'z'
F-0.013798
sg30
g291
sg46
g295
sbag2
(g19
g4
NtRp2610
(dp2611
g22
I3
sg23
F6.7352243580509832
sg24
F15.421759012904605
sg25
F-7.4725445302362292
sg26
I1
sg27
g298
sg29
I344
sS'y'
F2.64229
sS'x'
F1.6416170000000001
sS'z'
F-0.29861799999999999
sg30
g291
sg46
g299
sbag2
(g19
g4
NtRp2612
(dp2613
g22
I4
sg23
F-11.003184788379743
sg24
F2.6329586390662727
sg25
F-13.496516897980076
sg26
I1
sg27
g302
sg29
I344
sS'y'
F0.95920300000000003
sS'x'
F1.2083710000000001
sS'z'
F3.1697959999999998
sg30
g291
sg46
g303
sbasg1861
(lp2614
sg1875
g2021
sg1877
(lp2615
sbag2
(g1868
g4
NtRp2616
(dp2617
g11
g2026
sg13
(lp2618
sg1874
F6.8977900650410229
sg17
(lp2619
g2
(g19
g4
NtRp2620
(dp2621
g22
I1
sg23
F-0.72319985102192941
sg24
F19.091159951810095
sg25
F-38.892213037302291
sg26
I1
sg27
g306
sg29
I356
sS'y'
F0.39965200000000001
sS'x'
F0.74173599999999995
sS'z'
F1.2871269999999999
sg30
g307
sg46
g311
sbag2
(g19
g4
NtRp2622
(dp2623
g22
I2
sg23
F-8.4017351577958124
sg24
F-2.8564598127786383
sg25
F23.745270084373253
sg26
I1
sg27
g314
sg29
I344
sS'y'
F0.135687
sS'x'
F1.9768049999999999
sS'z'
F-1.224275
sg30
g315
sg46
g319
sbag2
(g19
g4
NtRp2624
(dp2625
g22
I3
sg23
F9.453738190750208
sg24
F-11.682249527092727
sg25
F11.706128175465981
sg26
I1
sg27
g322
sg29
I344
sS'y'
F1.715163
sS'x'
F-1.2930349999999999
sS'z'
F0.124774
sg30
g315
sg46
g323
sbag2
(g19
g4
NtRp2626
(dp2627
g22
I4
sg23
F-0.35034824422205973
sg24
F-5.2381203016692677
sg25
F3.7550634267012715
sg26
I1
sg27
g326
sg29
I344
sS'y'
F2.574249
sS'x'
F1.952286
sS'z'
F1.894733
sg30
g315
sg46
g327
sbasg1861
(lp2628
sg1875
g2029
sg1877
(lp2629
sbag2
(g1868
g4
NtRp2630
(dp2631
g11
g2034
sg13
(lp2632
sg1874
F8.4034672095055889
sg17
(lp2633
g2
(g19
g4
NtRp2634
(dp2635
g22
I1
sg23
F11.69537695243938
sg24
F-38.459701177859166
sg25
F18.039687389554167
sg26
I1
sg27
g330
sg29
I356
sS'y'
F1.331609
sS'x'
F0.44837399999999999
sS'z'
F0.37651000000000001
sg30
g331
sg46
g335
sbag2
(g19
g4
NtRp2636
(dp2637
g22
I2
sg23
F-3.4360956497489048
sg24
F6.2499167707598282
sg25
F-3.8156778850874171
sg26
I1
sg27
g338
sg29
I344
sS'y'
F1.2871109999999999
sS'x'
F3.006259
sS'z'
F0.394839
sg30
g339
sg46
g343
sbag2
(g19
g4
NtRp2638
(dp2639
g22
I3
sg23
F-3.4755948960275127
sg24
F6.0546132424979549
sg25
F-12.195665252575635
sg26
I1
sg27
g346
sg29
I344
sS'y'
F1.139591
sS'x'
F0.32121699999999997
sS'z'
F2.9960209999999998
sg30
g339
sg46
g347
sbag2
(g19
g4
NtRp2640
(dp2641
g22
I4
sg23
F-5.0492533014159573
sg24
F26.547317958706788
sg25
F-2.5666897570737066
sg26
I1
sg27
g350
sg29
I344
sS'y'
F-1.5237529999999999
sS'x'
F0.45615299999999998
sS'z'
F0.13875299999999999
sg30
g339
sg46
g351
sbasg1861
(lp2642
sg1875
g2037
sg1877
(lp2643
sbasS'Cl Cl Cl Cs Pb'
p2644
(lp2645
g2
(g1868
g4
NtRp2646
(dp2647
g11
g2042
sg13
(lp2648
sg1874
I0
sg17
(lp2649
g2
(g19
g4
NtRp2650
(dp2651
g22
I1
sg23
F-0.40720462029446486
sg24
F-0.54486640122040664
sg25
F-0.44008522438254988
sg26
I1
sg27
g354
sg29
I356
sS'y'
F0.30095499999999997
sS'x'
F0.30466100000000002
sS'z'
F0.345748
sg30
g355
sg46
g359
sbag2
(g19
g4
NtRp2652
(dp2653
g22
I2
sg23
F-0.01148112642263421
sg24
F-0.31355180813949129
sg25
F-0.32246813888385023
sg26
I1
sg27
g362
sg29
I344
sS'y'
F0.438917
sS'x'
F2.889561
sS'z'
F0.15013699999999999
sg30
g363
sg46
g367
sbag2
(g19
g4
NtRp2654
(dp2655
g22
I3
sg23
F-0.28809793019617913
sg24
F-0.083282410302216003
sg25
F-0.25979690488755836
sg26
I1
sg27
g370
sg29
I344
sS'y'
F2.8649830000000001
sS'x'
F0.060204000000000001
sS'z'
F0.020178999999999999
sg30
g363
sg46
g371
sbag2
(g19
g4
NtRp2656
(dp2657
g22
I4
sg23
F-0.20230093901750731
sg24
F-0.27325730463606601
sg25
F-0.024023293848861035
sg26
I1
sg27
g374
sg29
I344
sS'y'
F0.56421299999999996
sS'x'
F0.40487200000000001
sS'z'
F2.9263690000000002
sg30
g363
sg46
g375
sbag2
(g19
g4
NtRp2658
(dp2659
g22
I5
sg23
F-0.41638267110291227
sg24
F-0.54170494265880431
sg25
F-0.4437051475117062
sg26
I1
sg27
g378
sg29
I352
sS'y'
F3.0231240000000001
sS'x'
F2.5472009999999998
sS'z'
F2.2383769999999998
sg30
g379
sg46
g383
sbasg1861
(lp2660
sg1875
g2045
sg1877
(lp2661
sbag2
(g1868
g4
NtRp2662
(dp2663
g11
g2050
sg13
(lp2664
sg1874
F0.43088491824173347
sg17
(lp2665
g2
(g19
g4
NtRp2666
(dp2667
g22
I1
sg23
F5.5779668838011842
sg24
F6.8517854848574835
sg25
F4.5548398911906709
sg26
I1
sg27
g386
sg29
I356
sS'y'
F0.28872999999999999
sS'x'
F0.29615999999999998
sS'z'
F0.34003299999999997
sg30
g387
sg46
g391
sbag2
(g19
g4
NtRp2668
(dp2669
g22
I2
sg23
F-6.6401820863095962
sg24
F0.12342022185279433
sg25
F0.99231056229888037
sg26
I1
sg27
g394
sg29
I344
sS'y'
F0.429641
sS'x'
F2.9197389999999999
sS'z'
F0.132078
sg30
g395
sg46
g399
sbag2
(g19
g4
NtRp2670
(dp2671
g22
I3
sg23
F1.1858196883869729
sg24
F-6.4760253777311485
sg25
F1.4430593143419224
sg26
I1
sg27
g402
sg29
I344
sS'y'
F2.8890069999999999
sS'x'
F0.042340000000000003
sS'z'
F0.00091600000000000004
sg30
g395
sg46
g403
sbag2
(g19
g4
NtRp2672
(dp2673
g22
I4
sg23
F0.38895605355649399
sg24
F-0.10259411096949358
sg25
F-6.7947380015444141
sg26
I1
sg27
g406
sg29
I344
sS'y'
F0.55346499999999998
sS'x'
F0.388905
sS'z'
F2.9603440000000001
sg30
g395
sg46
g407
sbag2
(g19
g4
NtRp2674
(dp2675
g22
I5
sg23
F-1.7568293974393778
sg24
F-1.9775373465648587
sg25
F-1.4669279463165892
sg26
I1
sg27
g410
sg29
I352
sS'y'
F3.0313469999999998
sS'x'
F2.5593560000000002
sS'z'
F2.2474400000000001
sg30
g411
sg46
g415
sbasg1861
(lp2676
sg1875
g2053
sg1877
(lp2677
sbag2
(g1868
g4
NtRp2678
(dp2679
g11
g2058
sg13
(lp2680
sg1874
F3.3062442705955166
sg17
(lp2681
g2
(g19
g4
NtRp2682
(dp2683
g22
I1
sg23
F8.2860310988916197
sg24
F-8.8114354503018966
sg25
F-23.513888805817334
sg26
I1
sg27
g418
sg29
I356
sS'y'
F2.3809439999999999
sS'x'
F0.45100400000000002
sS'z'
F2.6681319999999999
sg30
g419
sg46
g423
sbag2
(g19
g4
NtRp2684
(dp2685
g22
I2
sg23
F-3.2376616666850424
sg24
F2.5798239888756576
sg25
F16.537055656672955
sg26
I1
sg27
g426
sg29
I344
sS'y'
F3.079904
sS'x'
F0.445353
sS'z'
F0.020048
sg30
g427
sg46
g431
sbag2
(g19
g4
NtRp2686
(dp2687
g22
I3
sg23
F-7.9166408805447945
sg24
F0.68993364464018436
sg25
F-0.25183478225768274
sg26
I1
sg27
g434
sg29
I344
sS'y'
F2.2536909999999999
sS'x'
F3.05721
sS'z'
F2.667862
sg30
g427
sg46
g435
sbag2
(g19
g4
NtRp2688
(dp2689
g22
I4
sg23
F-5.6220208961280571
sg24
F6.5645749824372972
sg25
F11.71589679655021
sg26
I1
sg27
g438
sg29
I344
sS'y'
F-0.122519
sS'x'
F0.33387
sS'z'
F1.734747
sg30
g427
sg46
g439
sbag2
(g19
g4
NtRp2690
(dp2691
g22
I5
sg23
F9.1199867513909592
sg24
F-1.5222774882083179
sg25
F-5.1381859115277715
sg26
I1
sg27
g442
sg29
I352
sS'y'
F0.70491899999999996
sS'x'
F2.5268969999999999
sS'z'
F-0.35931999999999997
sg30
g443
sg46
g447
sbasg1861
(lp2692
sg1875
g2061
sg1877
(lp2693
sbag2
(g1868
g4
NtRp2694
(dp2695
g11
g2066
sg13
(lp2696
sg1874
F4.4295653917927433
sg17
(lp2697
g2
(g19
g4
NtRp2698
(dp2699
g22
I1
sg23
F-7.7966995150706513
sg24
F40.844902371751338
sg25
F18.662897623283207
sg26
I1
sg27
g450
sg29
I356
sS'y'
F2.8216290000000002
sS'x'
F0.048063000000000002
sS'z'
F1.121469
sg30
g451
sg46
g455
sbag2
(g19
g4
NtRp2700
(dp2701
g22
I2
sg23
F9.0648719741030757
sg24
F-29.345355898836871
sg25
F-18.41018215211459
sg26
I1
sg27
g458
sg29
I344
sS'y'
F0.90581699999999998
sS'x'
F0.19925599999999999
sS'z'
F-0.35703600000000002
sg30
g459
sg46
g463
sbag2
(g19
g4
NtRp2702
(dp2703
g22
I3
sg23
F-1.8051274445291181
sg24
F-4.6426225530517193
sg25
F-3.7240075680595432
sg26
I1
sg27
g466
sg29
I344
sS'y'
F3.6711119999999999
sS'x'
F2.5539719999999999
sS'z'
F1.0515890000000001
sg30
g459
sg46
g467
sbag2
(g19
g4
NtRp2704
(dp2705
g22
I4
sg23
F0.35801561294958023
sg24
F-6.7800556663869287
sg25
F4.5188867891488682
sg26
I1
sg27
g470
sg29
I344
sS'y'
F1.607165
sS'x'
F0.61913700000000005
sS'z'
F3.3114110000000001
sg30
g459
sg46
g471
sbag2
(g19
g4
NtRp2706
(dp2707
g22
I5
sg23
F0.25126596655139122
sg24
F1.2760466479516752
sg25
F-0.019689808745349802
sg26
I1
sg27
g474
sg29
I352
sS'y'
F0.41497800000000001
sS'x'
F3.1288879999999999
sS'z'
F1.5080009999999999
sg30
g475
sg46
g479
sbasg1861
(lp2708
sg1875
g2069
sg1877
(lp2709
sbag2
(g1868
g4
NtRp2710
(dp2711
g11
g2074
sg13
(lp2712
sg1874
F4.4372998525075955
sg17
(lp2713
g2
(g19
g4
NtRp2714
(dp2715
g22
I1
sg23
F33.059763235618966
sg24
F-18.960280134799575
sg25
F27.035918845835795
sg26
I1
sg27
g482
sg29
I356
sS'y'
F1.6194809999999999
sS'x'
F3.0966140000000002
sS'z'
F0.73890400000000001
sg30
g483
sg46
g487
sbag2
(g19
g4
NtRp2716
(dp2717
g22
I2
sg23
F-4.7539590210567155
sg24
F1.8618669974012863
sg25
F-0.07363342156327643
sg26
I1
sg27
g490
sg29
I344
sS'y'
F3.2209210000000001
sS'x'
F2.441462
sS'z'
F2.660148
sg30
g491
sg46
g495
sbag2
(g19
g4
NtRp2718
(dp2719
g22
I3
sg23
F-32.73240172257956
sg24
F10.683579607047347
sg25
F-25.122664478165579
sg26
I1
sg27
g498
sg29
I344
sS'y'
F2.1637659999999999
sS'x'
F1.215141
sS'z'
F-0.65605000000000002
sg30
g491
sg46
g499
sbag2
(g19
g4
NtRp2720
(dp2721
g22
I4
sg23
F0.96746734197502937
sg24
F7.812244177125085
sg25
F-4.708140141117398
sg26
I1
sg27
g502
sg29
I344
sS'y'
F-0.38455099999999998
sS'x'
F1.787236
sS'z'
F1.9552130000000001
sg30
g491
sg46
g503
sbag2
(g19
g4
NtRp2722
(dp2723
g22
I5
sg23
F4.5336368295638572
sg24
F-1.786188460136388
sg25
F1.7930738940302506
sg26
I1
sg27
g506
sg29
I352
sS'y'
F1.9345870000000001
sS'x'
F-0.70287599999999995
sS'z'
F2.0623019999999999
sg30
g507
sg46
g511
sbasg1861
(lp2724
sg1875
g2077
sg1877
(lp2725
sbag2
(g1868
g4
NtRp2726
(dp2727
g11
g2082
sg13
(lp2728
sg1874
F4.5849880022431604
sg17
(lp2729
g2
(g19
g4
NtRp2730
(dp2731
g22
I1
sg23
F-12.499338147781842
sg24
F10.527203504556791
sg25
F-16.983723773940401
sg26
I1
sg27
g514
sg29
I356
sS'y'
F-0.139516
sS'x'
F1.9973510000000001
sS'z'
F1.2975939999999999
sg30
g515
sg46
g519
sbag2
(g19
g4
NtRp2732
(dp2733
g22
I2
sg23
F0.89656481850092973
sg24
F-1.3868685052476826
sg25
F1.2681013303887791
sg26
I1
sg27
g522
sg29
I344
sS'y'
F1.7609900000000001
sS'x'
F3.7243759999999999
sS'z'
F1.5486279999999999
sg30
g523
sg46
g527
sbag2
(g19
g4
NtRp2734
(dp2735
g22
I3
sg23
F11.361854948727512
sg24
F-7.2145503316350732
sg25
F22.871360597387049
sg26
I1
sg27
g530
sg29
I344
sS'y'
F1.2401709999999999
sS'x'
F0.71683699999999995
sS'z'
F-0.86828499999999997
sg30
g523
sg46
g531
sbag2
(g19
g4
NtRp2736
(dp2737
g22
I4
sg23
F3.4453843007127469
sg24
F-0.00019456857219928559
sg25
F-3.0348016437693652
sg26
I1
sg27
g534
sg29
I344
sS'y'
F0.86047700000000005
sS'x'
F0.37781799999999999
sS'z'
F3.0642749999999999
sg30
g523
sg46
g535
sbag2
(g19
g4
NtRp2738
(dp2739
g22
I5
sg23
F-2.5556583760782443
sg24
F-2.1531549566702024
sg25
F-2.9726722640901531
sg26
I1
sg27
g538
sg29
I352
sS'y'
F3.7847300000000001
sS'x'
F1.122274
sS'z'
F1.49007
sg30
g539
sg46
g543
sbasg1861
(lp2740
sg1875
g2085
sg1877
(lp2741
sbag2
(g1868
g4
NtRp2742
(dp2743
g11
g2090
sg13
(lp2744
sg1874
F5.8152415731070297
sg17
(lp2745
g2
(g19
g4
NtRp2746
(dp2747
g22
I1
sg23
F1.2750938248441233
sg24
F11.842058531716541
sg25
F3.0696505134612821
sg26
I1
sg27
g546
sg29
I356
sS'y'
F0.33178999999999997
sS'x'
F0.39679900000000001
sS'z'
F0.41040399999999999
sg30
g547
sg46
g551
sbag2
(g19
g4
NtRp2748
(dp2749
g22
I2
sg23
F0.50180711083234819
sg24
F4.001954453990491
sg25
F1.8746993688398035
sg26
I1
sg27
g554
sg29
I344
sS'y'
F0.12513099999999999
sS'x'
F2.924175
sS'z'
F0.95467900000000006
sg30
g555
sg46
g559
sbag2
(g19
g4
NtRp2750
(dp2751
g22
I3
sg23
F3.2140796149374067
sg24
F-6.1368459811856697
sg25
F6.7773585171695636
sg26
I1
sg27
g562
sg29
I344
sS'y'
F2.7863570000000002
sS'x'
F0.647926
sS'z'
F-0.53377699999999995
sg30
g555
sg46
g563
sbag2
(g19
g4
NtRp2752
(dp2753
g22
I4
sg23
F4.6527091020027385
sg24
F0.76566683394657453
sg25
F-3.3332142802784377
sg26
I1
sg27
g566
sg29
I344
sS'y'
F1.2509399999999999
sS'x'
F-0.147512
sS'z'
F2.8062939999999998
sg30
g555
sg46
g567
sbag2
(g19
g4
NtRp2754
(dp2755
g22
I5
sg23
F-10.431581937065227
sg24
F-12.474867967454191
sg25
F-8.6518401375437612
sg26
I1
sg27
g570
sg29
I352
sS'y'
F3.4267080000000001
sS'x'
F2.832554
sS'z'
F2.5579329999999998
sg30
g571
sg46
g575
sbasg1861
(lp2756
sg1875
g2093
sg1877
(lp2757
sbag2
(g1868
g4
NtRp2758
(dp2759
g11
g2098
sg13
(lp2760
sg1874
F6.0143826363050463
sg17
(lp2761
g2
(g19
g4
NtRp2762
(dp2763
g22
I1
sg23
F13.772902768448917
sg24
F-15.091257663064214
sg25
F-10.791558979518502
sg26
I1
sg27
g578
sg29
I356
sS'y'
F1.8282529999999999
sS'x'
F-0.34142499999999998
sS'z'
F1.860403
sg30
g579
sg46
g583
sbag2
(g19
g4
NtRp2764
(dp2765
g22
I2
sg23
F-1.2666697383697634
sg24
F7.1884279198579932
sg25
F22.551968997641524
sg26
I1
sg27
g586
sg29
I344
sS'y'
F0.956515
sS'x'
F0.49738300000000002
sS'z'
F-0.66109300000000004
sg30
g587
sg46
g591
sbag2
(g19
g4
NtRp2766
(dp2767
g22
I3
sg23
F2.7241838269614815
sg24
F-6.2950840274679898
sg25
F1.5399490181329294
sg26
I1
sg27
g594
sg29
I344
sS'y'
F3.9855049999999999
sS'x'
F1.0573250000000001
sS'z'
F1.6351070000000001
sg30
g587
sg46
g595
sbag2
(g19
g4
NtRp2768
(dp2769
g22
I4
sg23
F-7.8062234346006196
sg24
F15.217037603520149
sg25
F-14.088237182487401
sg26
I1
sg27
g598
sg29
I344
sS'y'
F0.25709399999999999
sS'x'
F1.4557709999999999
sS'z'
F3.2550279999999998
sg30
g587
sg46
g599
sbag2
(g19
g4
NtRp2770
(dp2771
g22
I5
sg23
F-5.0821111074361811
sg24
F-1.1913647486207295
sg25
F0.28226100465329085
sg26
I1
sg27
g602
sg29
I352
sS'y'
F1.6391610000000001
sS'x'
F3.5604550000000001
sS'z'
F0.83450000000000002
sg30
g603
sg46
g607
sbasg1861
(lp2772
sg1875
g2101
sg1877
(lp2773
sbag2
(g1868
g4
NtRp2774
(dp2775
g11
g2106
sg13
(lp2776
sg1874
F6.4636426016380302
sg17
(lp2777
g2
(g19
g4
NtRp2778
(dp2779
g22
I1
sg23
F-0.83968626334492424
sg24
F5.997060122561904
sg25
F12.872940933486618
sg26
I1
sg27
g610
sg29
I356
sS'y'
F0.31957799999999997
sS'x'
F0.46413599999999999
sS'z'
F0.32862799999999998
sg30
g611
sg46
g615
sbag2
(g19
g4
NtRp2780
(dp2781
g22
I2
sg23
F2.230116143162483
sg24
F-0.22880001694763391
sg25
F-0.4463909676569634
sg26
I1
sg27
g618
sg29
I344
sS'y'
F0.64720999999999995
sS'x'
F3.0417399999999999
sS'z'
F0.68039899999999998
sg30
g619
sg46
g623
sbag2
(g19
g4
NtRp2782
(dp2783
g22
I3
sg23
F3.1329329457989199
sg24
F0.97163074870167931
sg25
F0.21204924152830262
sg26
I1
sg27
g626
sg29
I344
sS'y'
F2.885157
sS'x'
F0.14574500000000001
sS'z'
F0.12565000000000001
sg30
g619
sg46
g627
sbag2
(g19
g4
NtRp2784
(dp2785
g22
I4
sg23
F4.5806473739729867
sg24
F0.56577916041406107
sg25
F-8.5596594893360241
sg26
I1
sg27
g630
sg29
I344
sS'y'
F0.47261900000000001
sS'x'
F-0.0079729999999999992
sS'z'
F2.8985310000000002
sg30
g619
sg46
g631
sbag2
(g19
g4
NtRp2786
(dp2787
g22
I5
sg23
F-10.339664274163352
sg24
F-8.2602904865681044
sg25
F-5.442624251921754
sg26
I1
sg27
g634
sg29
I352
sS'y'
F3.4302630000000001
sS'x'
F2.9202539999999999
sS'z'
F2.476807
sg30
g635
sg46
g639
sbasg1861
(lp2788
sg1875
g2109
sg1877
(lp2789
sbag2
(g1868
g4
NtRp2790
(dp2791
g11
g2114
sg13
(lp2792
sg1874
F6.7318527033984665
sg17
(lp2793
g2
(g19
g4
NtRp2794
(dp2795
g22
I1
sg23
F1.9739271422000941
sg24
F-7.8234614822573612
sg25
F13.177298412243044
sg26
I1
sg27
g642
sg29
I356
sS'y'
F0.44441900000000001
sS'x'
F0.42879699999999998
sS'z'
F0.24921099999999999
sg30
g643
sg46
g647
sbag2
(g19
g4
NtRp2796
(dp2797
g22
I2
sg23
F-2.7930994097682533
sg24
F5.4144684946303832
sg25
F0.32155105678136692
sg26
I1
sg27
g650
sg29
I344
sS'y'
F0.16037499999999999
sS'x'
F2.9764400000000002
sS'z'
F0.82952099999999995
sg30
g651
sg46
g655
sbag2
(g19
g4
NtRp2798
(dp2799
g22
I3
sg23
F0.60865290849084663
sg24
F9.8993154775071019
sg25
F-2.6522900499948632
sg26
I1
sg27
g658
sg29
I344
sS'y'
F3.004149
sS'x'
F0.62116300000000002
sS'z'
F0.18709999999999999
sg30
g651
sg46
g659
sbag2
(g19
g4
NtRp2800
(dp2801
g22
I4
sg23
F4.9287166011473253
sg24
F2.4782823373214327
sg25
F-8.783559752558519
sg26
I1
sg27
g662
sg29
I344
sS'y'
F0.48762
sS'x'
F-0.25319399999999997
sS'z'
F2.77006
sg30
g651
sg46
g663
sbag2
(g19
g4
NtRp2802
(dp2803
g22
I5
sg23
F-3.5311490098462985
sg24
F-10.015780831321454
sg25
F-2.4152365858301064
sg26
I1
sg27
g666
sg29
I352
sS'y'
F3.3918430000000002
sS'x'
F2.889551
sS'z'
F2.4909460000000001
sg30
g667
sg46
g671
sbasg1861
(lp2804
sg1875
g2117
sg1877
(lp2805
sbag2
(g1868
g4
NtRp2806
(dp2807
g11
g2122
sg13
(lp2808
sg1874
F7.0183306817683526
sg17
(lp2809
g2
(g19
g4
NtRp2810
(dp2811
g22
I1
sg23
F6.320477586462169
sg24
F6.3336487343906525
sg25
F-4.5253940865056119
sg26
I1
sg27
g674
sg29
I356
sS'y'
F0.335559
sS'x'
F0.231077
sS'z'
F0.51522100000000004
sg30
g675
sg46
g679
sbag2
(g19
g4
NtRp2812
(dp2813
g22
I2
sg23
F-2.767028307280492
sg24
F0.99113971087843467
sg25
F2.6375689121132195
sg26
I1
sg27
g682
sg29
I344
sS'y'
F0.57136600000000004
sS'x'
F2.4968340000000002
sS'z'
F-0.67414200000000002
sg30
g683
sg46
g687
sbag2
(g19
g4
NtRp2814
(dp2815
g22
I3
sg23
F2.1490831928165735
sg24
F-0.40466117838744065
sg25
F3.3151842422582627
sg26
I1
sg27
g690
sg29
I344
sS'y'
F2.9227979999999998
sS'x'
F-0.12627099999999999
sS'z'
F0.48939500000000002
sg30
g683
sg46
g691
sbag2
(g19
g4
NtRp2816
(dp2817
g22
I4
sg23
F0.10003344896772773
sg24
F-1.50207813683585
sg25
F7.1817055242843555
sg26
I1
sg27
g694
sg29
I344
sS'y'
F0.49817299999999998
sS'x'
F1.4508829999999999
sS'z'
F2.8075049999999999
sg30
g683
sg46
g695
sbag2
(g19
g4
NtRp2818
(dp2819
g22
I5
sg23
F-6.4712450583237668
sg24
F-4.4199430299582474
sg25
F-8.3350264519111743
sg26
I1
sg27
g698
sg29
I352
sS'y'
F3.4117630000000001
sS'x'
F2.8541310000000002
sS'z'
F2.548635
sg30
g699
sg46
g703
sbasg1861
(lp2820
sg1875
g2125
sg1877
(lp2821
sbag2
(g1868
g4
NtRp2822
(dp2823
g11
g2130
sg13
(lp2824
sg1874
F7.024487960929104
sg17
(lp2825
g2
(g19
g4
NtRp2826
(dp2827
g22
I1
sg23
F-1.7821575160418401
sg24
F21.663838385177584
sg25
F13.851017012342796
sg26
I1
sg27
g706
sg29
I356
sS'y'
F0.30820500000000001
sS'x'
F0.38226700000000002
sS'z'
F0.32866000000000001
sg30
g707
sg46
g711
sbag2
(g19
g4
NtRp2828
(dp2829
g22
I2
sg23
F3.6495996572606595
sg24
F2.1216406476904437
sg25
F1.6225654393144564
sg26
I1
sg27
g714
sg29
I344
sS'y'
F0.25906800000000002
sS'x'
F2.928204
sS'z'
F0.61481600000000003
sg30
g715
sg46
g719
sbag2
(g19
g4
NtRp2830
(dp2831
g22
I3
sg23
F3.3783533791316396
sg24
F-12.369406104769698
sg25
F3.8814218672398764
sg26
I1
sg27
g722
sg29
I344
sS'y'
F2.9907620000000001
sS'x'
F0.44840200000000002
sS'z'
F-0.119149
sg30
g715
sg46
g723
sbag2
(g19
g4
NtRp2832
(dp2833
g22
I4
sg23
F5.8290468254233048
sg24
F-0.6542260315195958
sg25
F-12.203057724700521
sg26
I1
sg27
g726
sg29
I344
sS'y'
F0.83071799999999996
sS'x'
F0.0057759999999999999
sS'z'
F2.9200080000000002
sg30
g715
sg46
g727
sbag2
(g19
g4
NtRp2834
(dp2835
g22
I5
sg23
F-10.60244546463251
sg24
F-11.040812661435831
sg25
F-7.9731998690672441
sg26
I1
sg27
g730
sg29
I352
sS'y'
F3.3836439999999999
sS'x'
F2.899718
sS'z'
F2.485147
sg30
g731
sg46
g735
sbasg1861
(lp2836
sg1875
g2133
sg1877
(lp2837
sbag2
(g1868
g4
NtRp2838
(dp2839
g11
g2138
sg13
(lp2840
sg1874
F7.1419295858758476
sg17
(lp2841
g2
(g19
g4
NtRp2842
(dp2843
g22
I1
sg23
F-11.084444757725665
sg24
F3.3713672915191464
sg25
F-1.5586900188678761
sg26
I1
sg27
g738
sg29
I356
sS'y'
F0.25040899999999999
sS'x'
F0.48053299999999999
sS'z'
F0.37751699999999999
sg30
g739
sg46
g743
sbag2
(g19
g4
NtRp2844
(dp2845
g22
I2
sg23
F12.083276440177352
sg24
F4.7352697944421793
sg25
F-1.4872465790394394
sg26
I1
sg27
g746
sg29
I344
sS'y'
F1.3415189999999999
sS'x'
F2.7355360000000002
sS'z'
F-0.12973100000000001
sg30
g747
sg46
g751
sbag2
(g19
g4
NtRp2846
(dp2847
g22
I3
sg23
F3.7171454195947153
sg24
F-1.6011066921272137
sg25
F1.0866250200125651
sg26
I1
sg27
g754
sg29
I344
sS'y'
F2.5906850000000001
sS'x'
F-0.62379200000000001
sS'z'
F0.57389400000000002
sg30
g747
sg46
g755
sbag2
(g19
g4
NtRp2848
(dp2849
g22
I4
sg23
F4.8568430407758916
sg24
F2.7479944665140694
sg25
F7.0973103628909913
sg26
I1
sg27
g758
sg29
I344
sS'y'
F0.20222000000000001
sS'x'
F0.96004999999999996
sS'z'
F2.8831699999999998
sg30
g747
sg46
g759
sbag2
(g19
g4
NtRp2850
(dp2851
g22
I5
sg23
F-10.740154782838308
sg24
F-10.689250414764015
sg25
F-6.5063232593132279
sg26
I1
sg27
g762
sg29
I352
sS'y'
F3.4371369999999999
sS'x'
F2.8799410000000001
sS'z'
F2.52901
sg30
g763
sg46
g767
sbasg1861
(lp2852
sg1875
g2141
sg1877
(lp2853
sbag2
(g1868
g4
NtRp2854
(dp2855
g11
g2146
sg13
(lp2856
sg1874
F7.7137183543167316
sg17
(lp2857
g2
(g19
g4
NtRp2858
(dp2859
g22
I1
sg23
F4.5040401860031887
sg24
F21.826202771464239
sg25
F-2.6072030845575358
sg26
I1
sg27
g770
sg29
I356
sS'y'
F0.26555800000000002
sS'x'
F0.31223299999999998
sS'z'
F0.53206600000000004
sg30
g771
sg46
g775
sbag2
(g19
g4
NtRp2860
(dp2861
g22
I2
sg23
F2.9869909234635408
sg24
F0.6693187947456698
sg25
F3.2227260377128299
sg26
I1
sg27
g778
sg29
I344
sS'y'
F0.12706899999999999
sS'x'
F2.8539050000000001
sS'z'
F0.84864300000000004
sg30
g779
sg46
g783
sbag2
(g19
g4
NtRp2862
(dp2863
g22
I3
sg23
F-1.2521667284076758
sg24
F-11.118690247013479
sg25
F8.7811179307919147
sg26
I1
sg27
g786
sg29
I344
sS'y'
F2.5343079999999998
sS'x'
F0.64314400000000005
sS'z'
F-0.824847
sg30
g779
sg46
g787
sbag2
(g19
g4
NtRp2864
(dp2865
g22
I4
sg23
F-0.012233320366868226
sg24
F-2.9115308983153279
sg25
F-1.0594692910863943
sg26
I1
sg27
g790
sg29
I344
sS'y'
F1.6837470000000001
sS'x'
F0.089024000000000006
sS'z'
F2.7693490000000001
sg30
g779
sg46
g791
sbag2
(g19
g4
NtRp2866
(dp2867
g22
I5
sg23
F-7.7571864839413767
sg24
F-10.254676955902362
sg25
F-9.2660588754433704
sg26
I1
sg27
g794
sg29
I352
sS'y'
F3.4574310000000001
sS'x'
F2.9088379999999998
sS'z'
F2.5286019999999998
sg30
g795
sg46
g799
sbasg1861
(lp2868
sg1875
g2149
sg1877
(lp2869
sbag2
(g1868
g4
NtRp2870
(dp2871
g11
g2154
sg13
(lp2872
sg1874
F12.01345324217298
sg17
(lp2873
g2
(g19
g4
NtRp2874
(dp2875
g22
I1
sg23
F-14.434137422402687
sg24
F17.206425846085082
sg25
F4.6920460949564893
sg26
I1
sg27
g802
sg29
I356
sS'y'
F0.169989
sS'x'
F0.60281499999999999
sS'z'
F0.44361600000000001
sg30
g803
sg46
g807
sbag2
(g19
g4
NtRp2876
(dp2877
g22
I2
sg23
F5.5286620315357862
sg24
F-11.11953080036824
sg25
F-11.533822636311269
sg26
I1
sg27
g810
sg29
I344
sS'y'
F1.315844
sS'x'
F2.9693700000000001
sS'z'
F0.390241
sg30
g811
sg46
g815
sbag2
(g19
g4
NtRp2878
(dp2879
g22
I3
sg23
F8.7813920246122787
sg24
F-11.888776826619409
sg25
F3.027758708025623
sg26
I1
sg27
g818
sg29
I344
sS'y'
F2.310149
sS'x'
F-0.63004199999999999
sS'z'
F-0.417852
sg30
g811
sg46
g819
sbag2
(g19
g4
NtRp2880
(dp2881
g22
I4
sg23
F8.4582793713299367
sg24
F-1.2511866498340973
sg25
F-6.3557095528658571
sg26
I1
sg27
g822
sg29
I344
sS'y'
F0.94538999999999995
sS'x'
F0.125334
sS'z'
F2.925138
sg30
g811
sg46
g823
sbag2
(g19
g4
NtRp2882
(dp2883
g22
I5
sg23
F-8.9451262420437896
sg24
F6.1674906682662183
sg25
F10.307352804760038
sg26
I1
sg27
g826
sg29
I352
sS'y'
F3.4134570000000002
sS'x'
F2.9386160000000001
sS'z'
F2.4992000000000001
sg30
g827
sg46
g831
sbasg1861
(lp2884
sg1875
g2157
sg1877
(lp2885
sbag2
(g1868
g4
NtRp2886
(dp2887
g11
g2162
sg13
(lp2888
sg1874
F13.084702223053732
sg17
(lp2889
g2
(g19
g4
NtRp2890
(dp2891
g22
I1
sg23
F36.276100389324505
sg24
F-77.806687410778494
sg25
F-29.552593136552659
sg26
I1
sg27
g834
sg29
I356
sS'y'
F0.055312
sS'x'
F1.385297
sS'z'
F1.866619
sg30
g835
sg46
g839
sbag2
(g19
g4
NtRp2892
(dp2893
g22
I2
sg23
F-54.595924516107161
sg24
F56.723188794715675
sg25
F20.511432954247198
sg26
I1
sg27
g842
sg29
I344
sS'y'
F1.592921
sS'x'
F-0.27036300000000002
sS'z'
F2.344643
sg30
g843
sg46
g847
sbag2
(g19
g4
NtRp2894
(dp2895
g22
I3
sg23
F15.243958483651131
sg24
F18.810595005537898
sg25
F6.0304725657542742
sg26
I1
sg27
g850
sg29
I344
sS'y'
F1.2808809999999999
sS'x'
F3.496915
sS'z'
F2.3434409999999999
sg30
g843
sg46
g851
sbag2
(g19
g4
NtRp2896
(dp2897
g22
I4
sg23
F0.31617662394691121
sg24
F1.7410396935079193
sg25
F6.2536928474915348
sg26
I1
sg27
g854
sg29
I344
sS'y'
F0.85267099999999996
sS'x'
F1.429327
sS'z'
F-0.69567699999999999
sg30
g843
sg46
g855
sbag2
(g19
g4
NtRp2898
(dp2899
g22
I5
sg23
F2.3406225758020014
sg24
F-2.0759796964867032
sg25
F-3.1353337995822428
sg26
I1
sg27
g858
sg29
I352
sS'y'
F3.8168669999999998
sS'x'
F1.7154
sS'z'
F0.88011099999999998
sg30
g859
sg46
g863
sbasg1861
(lp2900
sg1875
g2165
sg1877
(lp2901
sbag2
(g1868
g4
NtRp2902
(dp2903
g11
g2170
sg13
(lp2904
sg1874
F14.770462628954609
sg17
(lp2905
g2
(g19
g4
NtRp2906
(dp2907
g22
I1
sg23
F15.144176778665889
sg24
F0.68532041422398493
sg25
F-3.4373144392474471
sg26
I1
sg27
g866
sg29
I356
sS'y'
F0.47050999999999998
sS'x'
F0.27442100000000003
sS'z'
F0.38691599999999998
sg30
g867
sg46
g871
sbag2
(g19
g4
NtRp2908
(dp2909
g22
I2
sg23
F-10.652912098183061
sg24
F4.1229103334845201
sg25
F4.0784426475719604
sg26
I1
sg27
g874
sg29
I344
sS'y'
F0.30150199999999999
sS'x'
F2.9021889999999999
sS'z'
F-0.010168999999999999
sg30
g875
sg46
g879
sbag2
(g19
g4
NtRp2910
(dp2911
g22
I3
sg23
F3.7245338706934841
sg24
F4.4367331002060819
sg25
F3.9345794056186696
sg26
I1
sg27
g882
sg29
I344
sS'y'
F3.084387
sS'x'
F0.38717600000000002
sS'z'
F0.51971900000000004
sg30
g875
sg46
g883
sbag2
(g19
g4
NtRp2912
(dp2913
g22
I4
sg23
F1.7299938659889589
sg24
F2.5996190688199383
sg25
F4.8180651637367378
sg26
I1
sg27
g886
sg29
I344
sS'y'
F0.198439
sS'x'
F0.48939500000000002
sS'z'
F2.902129
sg30
g875
sg46
g887
sbag2
(g19
g4
NtRp2914
(dp2915
g22
I5
sg23
F-10.110284896246894
sg24
F-11.749796142012386
sg25
F-9.1719172352897758
sg26
I1
sg27
g890
sg29
I352
sS'y'
F3.717657
sS'x'
F3.1333989999999998
sS'z'
F2.7462650000000002
sg30
g891
sg46
g895
sbasg1861
(lp2916
sg1875
g2173
sg1877
(lp2917
sbag2
(g1868
g4
NtRp2918
(dp2919
g11
g2178
sg13
(lp2920
sg1874
F15.53798873860705
sg17
(lp2921
g2
(g19
g4
NtRp2922
(dp2923
g22
I1
sg23
F11.747713722429722
sg24
F-7.340421108624378
sg25
F9.3235727278241693
sg26
I1
sg27
g898
sg29
I356
sS'y'
F0.43187799999999998
sS'x'
F0.34306700000000001
sS'z'
F0.26408399999999999
sg30
g899
sg46
g903
sbag2
(g19
g4
NtRp2924
(dp2925
g22
I2
sg23
F-3.5972491711956813
sg24
F4.0111847271493319
sg25
F1.9055258700965294
sg26
I1
sg27
g906
sg29
I344
sS'y'
F0.67793800000000004
sS'x'
F2.9728699999999999
sS'z'
F0.171426
sg30
g907
sg46
g911
sbag2
(g19
g4
NtRp2926
(dp2927
g22
I3
sg23
F2.0525849941997958
sg24
F14.48311100425164
sg25
F3.1135245650073848
sg26
I1
sg27
g914
sg29
I344
sS'y'
F2.934059
sS'x'
F0.074122999999999994
sS'z'
F0.53608199999999995
sg30
g907
sg46
g915
sbag2
(g19
g4
NtRp2928
(dp2929
g22
I4
sg23
F0.11996431769517435
sg24
F2.0761039581702292
sg25
F-4.1836947919851495
sg26
I1
sg27
g918
sg29
I344
sS'y'
F0.101634
sS'x'
F0.44843499999999997
sS'z'
F2.8402959999999999
sg30
g907
sg46
g919
sbag2
(g19
g4
NtRp2930
(dp2931
g22
I5
sg23
F-10.427211016457585
sg24
F-13.954936025923223
sg25
F-9.9529094827962687
sg26
I1
sg27
g922
sg29
I352
sS'y'
F3.7086709999999998
sS'x'
F3.1320399999999999
sS'z'
F2.7792690000000002
sg30
g923
sg46
g927
sbasg1861
(lp2932
sg1875
g2181
sg1877
(lp2933
sbag2
(g1868
g4
NtRp2934
(dp2935
g11
g2186
sg13
(lp2936
sg1874
F15.803029859555238
sg17
(lp2937
g2
(g19
g4
NtRp2938
(dp2939
g22
I1
sg23
F-9.3793062368001756
sg24
F11.135644435839515
sg25
F-12.233246221565652
sg26
I1
sg27
g930
sg29
I356
sS'y'
F0.23899400000000001
sS'x'
F0.450075
sS'z'
F0.61251100000000003
sg30
g931
sg46
g935
sbag2
(g19
g4
NtRp2940
(dp2941
g22
I2
sg23
F9.4757293640095703
sg24
F3.3594810173668499
sg25
F3.2708978523300725
sg26
I1
sg27
g938
sg29
I344
sS'y'
F0.69590600000000002
sS'x'
F2.88632
sS'z'
F0.053134000000000001
sg30
g939
sg46
g943
sbag2
(g19
g4
NtRp2942
(dp2943
g22
I3
sg23
F3.5182474046623211
sg24
F-10.004504812804587
sg25
F6.5686367595371795
sg26
I1
sg27
g946
sg29
I344
sS'y'
F2.554627
sS'x'
F-0.28097899999999998
sS'z'
F-0.42646200000000001
sg30
g939
sg46
g947
sbag2
(g19
g4
NtRp2944
(dp2945
g22
I4
sg23
F5.9735209894280317
sg24
F7.4112668657869865
sg25
F10.279683317710482
sg26
I1
sg27
g950
sg29
I344
sS'y'
F1.207544
sS'x'
F0.63419999999999999
sS'z'
F2.9884529999999998
sg30
g939
sg46
g951
sbag2
(g19
g4
NtRp2946
(dp2947
g22
I5
sg23
F-9.5191186228126927
sg24
F-12.496713662810837
sg25
F-8.2526144236018695
sg26
I1
sg27
g954
sg29
I352
sS'y'
F3.7543229999999999
sS'x'
F3.153543
sS'z'
F2.801752
sg30
g955
sg46
g959
sbasg1861
(lp2948
sg1875
g2189
sg1877
(lp2949
sbag2
(g1868
g4
NtRp2950
(dp2951
g11
g2194
sg13
(lp2952
sg1874
F15.848457177321292
sg17
(lp2953
g2
(g19
g4
NtRp2954
(dp2955
g22
I1
sg23
F11.85620853210801
sg24
F16.544116420823556
sg25
F-0.20456119325300615
sg26
I1
sg27
g962
sg29
I356
sS'y'
F0.23650499999999999
sS'x'
F0.34618100000000002
sS'z'
F0.54656800000000005
sg30
g963
sg46
g967
sbag2
(g19
g4
NtRp2956
(dp2957
g22
I2
sg23
F-8.0281979595211599
sg24
F1.6409866706451428
sg25
F6.1104571310717448
sg26
I1
sg27
g970
sg29
I344
sS'y'
F0.48908099999999999
sS'x'
F2.9229820000000002
sS'z'
F-0.0090220000000000005
sg30
g971
sg46
g975
sbag2
(g19
g4
NtRp2958
(dp2959
g22
I3
sg23
F2.2512054267070392
sg24
F-7.2513980414331503
sg25
F4.3260903439904812
sg26
I1
sg27
g978
sg29
I344
sS'y'
F2.6220599999999998
sS'x'
F-0.16888300000000001
sS'z'
F-0.35732999999999998
sg30
g971
sg46
g979
sbag2
(g19
g4
NtRp2960
(dp2961
g22
I4
sg23
F4.2671106894451425
sg24
F2.0977827483337017
sg25
F-2.1850364620552747
sg26
I1
sg27
g982
sg29
I344
sS'y'
F1.166703
sS'x'
F0.66029300000000002
sS'z'
F3.0201069999999999
sg30
g971
sg46
g983
sbag2
(g19
g4
NtRp2962
(dp2963
g22
I5
sg23
F-10.353089134491706
sg24
F-12.903240527354665
sg25
F-7.4040480815946976
sg26
I1
sg27
g986
sg29
I352
sS'y'
F3.7441620000000002
sS'x'
F3.1890049999999999
sS'z'
F2.7305060000000001
sg30
g987
sg46
g991
sbasg1861
(lp2964
sg1875
g2197
sg1877
(lp2965
sbag2
(g1868
g4
NtRp2966
(dp2967
g11
g2202
sg13
(lp2968
sg1874
F15.962626669009216
sg17
(lp2969
g2
(g19
g4
NtRp2970
(dp2971
g22
I1
sg23
F-0.026534393235290676
sg24
F1.917052341266644
sg25
F3.2072080738014286
sg26
I1
sg27
g994
sg29
I356
sS'y'
F0.36132999999999998
sS'x'
F0.343781
sS'z'
F0.399011
sg30
g995
sg46
g999
sbag2
(g19
g4
NtRp2972
(dp2973
g22
I2
sg23
F4.0608023716094142
sg24
F2.0418396313651948
sg25
F1.3470850171270341
sg26
I1
sg27
g1002
sg29
I344
sS'y'
F-0.284858
sS'x'
F2.7517040000000001
sS'z'
F0.95915300000000003
sg30
g1003
sg46
g1007
sbag2
(g19
g4
NtRp2974
(dp2975
g22
I3
sg23
F3.99975667091952
sg24
F4.7201141035210394
sg25
F1.7225309257074688
sg26
I1
sg27
g1010
sg29
I344
sS'y'
F2.695729
sS'x'
F0.980958
sS'z'
F-0.49645099999999998
sg30
g1003
sg46
g1011
sbag2
(g19
g4
NtRp2976
(dp2977
g22
I4
sg23
F3.2200403491906631
sg24
F3.8631134167390258
sg25
F2.3704066020256183
sg26
I1
sg27
g1014
sg29
I344
sS'y'
F1.344511
sS'x'
F-0.033535000000000002
sS'z'
F2.7764880000000001
sg30
g1003
sg46
g1015
sbag2
(g19
g4
NtRp2978
(dp2979
g22
I5
sg23
F-12.103414878518089
sg24
F-13.773873549214835
sg25
F-9.8034531488534302
sg26
I1
sg27
g1018
sg29
I352
sS'y'
F3.7582840000000002
sS'x'
F3.146039
sS'z'
F2.7892960000000002
sg30
g1019
sg46
g1023
sbasg1861
(lp2980
sg1875
g2205
sg1877
(lp2981
sbag2
(g1868
g4
NtRp2982
(dp2983
g11
g2210
sg13
(lp2984
sg1874
F16.378275432790733
sg17
(lp2985
g2
(g19
g4
NtRp2986
(dp2987
g22
I1
sg23
F-4.8334924666122259
sg24
F12.380677016073506
sg25
F-13.738703943696867
sg26
I1
sg27
g1026
sg29
I356
sS'y'
F0.297124
sS'x'
F0.35581200000000002
sS'z'
F0.54415899999999995
sg30
g1027
sg46
g1031
sbag2
(g19
g4
NtRp2988
(dp2989
g22
I2
sg23
F0.19196583468300971
sg24
F0.69265173734421348
sg25
F2.1343325357889098
sg26
I1
sg27
g1034
sg29
I344
sS'y'
F0.848943
sS'x'
F2.521366
sS'z'
F-0.72958900000000004
sg30
g1035
sg46
g1039
sbag2
(g19
g4
NtRp2990
(dp2991
g22
I3
sg23
F5.1664267246086828
sg24
F-5.071240266293815
sg25
F2.5599348173945615
sg26
I1
sg27
g1042
sg29
I344
sS'y'
F2.869202
sS'x'
F-0.28886899999999999
sS'z'
F0.76156100000000004
sg30
g1035
sg46
g1043
sbag2
(g19
g4
NtRp2992
(dp2993
g22
I4
sg23
F10.65560035513418
sg24
F3.9773983273423021
sg25
F17.367562675115266
sg26
I1
sg27
g1046
sg29
I344
sS'y'
F0.35097099999999998
sS'x'
F1.514829
sS'z'
F2.7698900000000002
sg30
g1035
sg46
g1047
sbag2
(g19
g4
NtRp2994
(dp2995
g22
I5
sg23
F-12.324914878482479
sg24
F-13.241237987681073
sg25
F-9.585225423420475
sg26
I1
sg27
g1050
sg29
I352
sS'y'
F3.7471839999999998
sS'x'
F3.2038169999999999
sS'z'
F2.7579560000000001
sg30
g1051
sg46
g1055
sbasg1861
(lp2996
sg1875
g2213
sg1877
(lp2997
sbag2
(g1868
g4
NtRp2998
(dp2999
g11
g2218
sg13
(lp3000
sg1874
F17.172026071465702
sg17
(lp3001
g2
(g19
g4
NtRp3002
(dp3003
g22
I1
sg23
F-5.8708922117824764
sg24
F18.889435026266064
sg25
F17.300307869772443
sg26
I1
sg27
g1058
sg29
I356
sS'y'
F0.34665899999999999
sS'x'
F0.51458700000000002
sS'z'
F0.236877
sg30
g1059
sg46
g1063
sbag2
(g19
g4
NtRp3004
(dp3005
g22
I2
sg23
F1.4599011219505675
sg24
F-31.651013292823766
sg25
F-26.856166271449226
sg26
I1
sg27
g1066
sg29
I344
sS'y'
F1.225943
sS'x'
F3.0154489999999998
sS'z'
F0.72894000000000003
sg30
g1067
sg46
g1071
sbag2
(g19
g4
NtRp3006
(dp3007
g22
I3
sg23
F10.899458200642469
sg24
F-14.997603423213738
sg25
F-0.61210291213948476
sg26
I1
sg27
g1074
sg29
I344
sS'y'
F2.8715480000000002
sS'x'
F-0.42383599999999999
sS'z'
F0.41889100000000001
sg30
g1067
sg46
g1075
sbag2
(g19
g4
NtRp3008
(dp3009
g22
I4
sg23
F3.5646647214321994
sg24
F1.5438695280831873
sg25
F-11.441272347777595
sg26
I1
sg27
g1078
sg29
I344
sS'y'
F-0.054801999999999997
sS'x'
F0.110844
sS'z'
F2.7665320000000002
sg30
g1067
sg46
g1079
sbag2
(g19
g4
NtRp3010
(dp3011
g22
I5
sg23
F-10.202316517471651
sg24
F25.894456367714316
sg25
F21.359117650407999
sg26
I1
sg27
g1082
sg29
I352
sS'y'
F3.3984209999999999
sS'x'
F2.9193370000000001
sS'z'
F2.4934310000000002
sg30
g1083
sg46
g1087
sbasg1861
(lp3012
sg1875
g2221
sg1877
(lp3013
sbag2
(g1868
g4
NtRp3014
(dp3015
g11
g2226
sg13
(lp3016
sg1874
F18.69116930302809
sg17
(lp3017
g2
(g19
g4
NtRp3018
(dp3019
g22
I1
sg23
F36.335177686858508
sg24
F-0.6915711414182697
sg25
F20.041884558046441
sg26
I1
sg27
g1090
sg29
I356
sS'y'
F0.51741000000000004
sS'x'
F0.13795399999999999
sS'z'
F0.36054900000000001
sg30
g1091
sg46
g1095
sbag2
(g19
g4
NtRp3020
(dp3021
g22
I2
sg23
F-23.263964728370276
sg24
F7.907536518508385
sg25
F1.85425156169052
sg26
I1
sg27
g1098
sg29
I344
sS'y'
F-0.37304500000000002
sS'x'
F2.6685629999999998
sS'z'
F-0.028915
sg30
g1099
sg46
g1103
sbag2
(g19
g4
NtRp3022
(dp3023
g22
I3
sg23
F-1.5990023152043544
sg24
F-1.1350408496095703
sg25
F2.1006116581933552
sg26
I1
sg27
g1106
sg29
I344
sS'y'
F3.0334110000000001
sS'x'
F1.0008319999999999
sS'z'
F0.24291399999999999
sg30
g1099
sg46
g1107
sbag2
(g19
g4
NtRp3024
(dp3025
g22
I4
sg23
F-2.7155200548398137
sg24
F5.0585569396251815
sg25
F-17.644837366667588
sg26
I1
sg27
g1110
sg29
I344
sS'y'
F0.49255399999999999
sS'x'
F0.55701400000000001
sS'z'
F3.062233
sg30
g1099
sg46
g1111
sbag2
(g19
g4
NtRp3026
(dp3027
g22
I5
sg23
F-9.796335293483887
sg24
F-11.870326618050383
sg25
F-6.7670470587453559
sg26
I1
sg27
g1114
sg29
I352
sS'y'
F3.71651
sS'x'
F3.1462479999999999
sS'z'
F2.8168739999999999
sg30
g1115
sg46
g1119
sbasg1861
(lp3028
sg1875
g2229
sg1877
(lp3029
sbag2
(g1868
g4
NtRp3030
(dp3031
g11
g2234
sg13
(lp3032
sg1874
F23.223874535844185
sg17
(lp3033
g2
(g19
g4
NtRp3034
(dp3035
g22
I1
sg23
F-2.4528553745213824
sg24
F-2.7405479862336195
sg25
F15.520984769229969
sg26
I1
sg27
g1122
sg29
I356
sS'y'
F0.52570099999999997
sS'x'
F0.40458100000000002
sS'z'
F0.21112800000000001
sg30
g1123
sg46
g1127
sbag2
(g19
g4
NtRp3036
(dp3037
g22
I2
sg23
F7.3399931794279638
sg24
F3.0560080185035132
sg25
F0.15834579341830055
sg26
I1
sg27
g1130
sg29
I344
sS'y'
F0.375859
sS'x'
F2.9367329999999998
sS'z'
F0.45230900000000002
sg30
g1131
sg46
g1135
sbag2
(g19
g4
NtRp3038
(dp3039
g22
I3
sg23
F5.553147184879295
sg24
F7.9213581584209232
sg25
F3.5409658678286116
sg26
I1
sg27
g1138
sg29
I344
sS'y'
F3.0690810000000002
sS'x'
F0.41843399999999997
sS'z'
F0.80519799999999997
sg30
g1131
sg46
g1139
sbag2
(g19
g4
NtRp3040
(dp3041
g22
I4
sg23
F0.34067244587548962
sg24
F2.7880576513298685
sg25
F-10.025353945870741
sg26
I1
sg27
g1142
sg29
I344
sS'y'
F-0.16255800000000001
sS'x'
F0.038060999999999998
sS'z'
F2.7079
sg30
g1131
sg46
g1143
sbag2
(g19
g4
NtRp3042
(dp3043
g22
I5
sg23
F-10.681158179744964
sg24
F-11.316662279276585
sg25
F-9.7043912692043648
sg26
I1
sg27
g1146
sg29
I352
sS'y'
F4.0588819999999997
sS'x'
F3.425465
sS'z'
F3.0086249999999999
sg30
g1147
sg46
g1151
sbasg1861
(lp3044
sg1875
g2237
sg1877
(lp3045
sbag2
(g1868
g4
NtRp3046
(dp3047
g11
g2242
sg13
(lp3048
sg1874
F24.224728041581848
sg17
(lp3049
g2
(g19
g4
NtRp3050
(dp3051
g22
I1
sg23
F1.9341366507824105
sg24
F-11.747194411234881
sg25
F17.902660826404844
sg26
I1
sg27
g1154
sg29
I356
sS'y'
F0.58420300000000003
sS'x'
F0.227327
sS'z'
F0.33728000000000002
sg30
g1155
sg46
g1159
sbag2
(g19
g4
NtRp3052
(dp3053
g22
I2
sg23
F3.2364421870546218
sg24
F0.34021379632413296
sg25
F-3.1287038140900876
sg26
I1
sg27
g1162
sg29
I344
sS'y'
F-0.169516
sS'x'
F2.5737139999999998
sS'z'
F-0.19650100000000001
sg30
g1163
sg46
g1167
sbag2
(g19
g4
NtRp3054
(dp3055
g22
I3
sg23
F7.5651903190295222
sg24
F16.706438211032307
sg25
F4.537325745722371
sg26
I1
sg27
g1170
sg29
I344
sS'y'
F3.0482079999999998
sS'x'
F0.88103699999999996
sS'z'
F0.67119899999999999
sg30
g1163
sg46
g1171
sbag2
(g19
g4
NtRp3056
(dp3057
g22
I4
sg23
F-2.8732826038152286
sg24
F4.8909223553193932
sg25
F-11.441623444663126
sg26
I1
sg27
g1174
sg29
I344
sS'y'
F0.094810000000000005
sS'x'
F0.60460899999999995
sS'z'
F2.9410539999999998
sg30
g1163
sg46
g1175
sbag2
(g19
g4
NtRp3058
(dp3059
g22
I5
sg23
F-10.500386061202034
sg24
F-10.395342289184407
sg25
F-8.20173597460421
sg26
I1
sg27
g1178
sg29
I352
sS'y'
F4.1314190000000002
sS'x'
F3.4124979999999998
sS'z'
F3.0217019999999999
sg30
g1179
sg46
g1183
sbasg1861
(lp3060
sg1875
g2245
sg1877
(lp3061
sbag2
(g1868
g4
NtRp3062
(dp3063
g11
g2250
sg13
(lp3064
sg1874
F24.418042628824487
sg17
(lp3065
g2
(g19
g4
NtRp3066
(dp3067
g22
I1
sg23
F-2.7794351471972649
sg24
F13.342171591547563
sg25
F28.257993768174739
sg26
I1
sg27
g1186
sg29
I356
sS'y'
F0.39212900000000001
sS'x'
F0.542014
sS'z'
F0.18048700000000001
sg30
g1187
sg46
g1191
sbag2
(g19
g4
NtRp3068
(dp3069
g22
I2
sg23
F0.87772443403230449
sg24
F4.9648313221144074
sg25
F1.7042196257445834
sg26
I1
sg27
g1194
sg29
I344
sS'y'
F1.097817
sS'x'
F3.0426839999999999
sS'z'
F0.729105
sg30
g1195
sg46
g1199
sbag2
(g19
g4
NtRp3070
(dp3071
g22
I3
sg23
F6.6180639785879203
sg24
F-7.9123836561996503
sg25
F-3.5369594898201928
sg26
I1
sg27
g1202
sg29
I344
sS'y'
F2.8572350000000002
sS'x'
F-0.325237
sS'z'
F0.61136000000000001
sg30
g1195
sg46
g1203
sbag2
(g19
g4
NtRp3072
(dp3073
g22
I4
sg23
F3.9800562161191779
sg24
F1.4341045840432312
sg25
F-17.470735596845358
sg26
I1
sg27
g1206
sg29
I344
sS'y'
F-0.204566
sS'x'
F0.052513999999999998
sS'z'
F2.7246950000000001
sg30
g1195
sg46
g1207
sbag2
(g19
g4
NtRp3074
(dp3075
g22
I5
sg23
F-9.3260235865238439
sg24
F-12.915026679023866
sg25
F-10.015024242826119
sg26
I1
sg27
g1210
sg29
I352
sS'y'
F4.0538449999999999
sS'x'
F3.4630879999999999
sS'z'
F2.9975049999999999
sg30
g1211
sg46
g1215
sbasg1861
(lp3076
sg1875
g2253
sg1877
(lp3077
sbag2
(g1868
g4
NtRp3078
(dp3079
g11
g2258
sg13
(lp3080
sg1874
F25.163211692490627
sg17
(lp3081
g2
(g19
g4
NtRp3082
(dp3083
g22
I1
sg23
F3.5123415726530061
sg24
F11.373434831599006
sg25
F1.3939910658462522
sg26
I1
sg27
g1218
sg29
I356
sS'y'
F0.29570400000000002
sS'x'
F0.44772499999999998
sS'z'
F0.42774800000000002
sg30
g1219
sg46
g1223
sbag2
(g19
g4
NtRp3084
(dp3085
g22
I2
sg23
F1.0335264191333566
sg24
F3.8467858083689896
sg25
F2.2680497541270959
sg26
I1
sg27
g1226
sg29
I344
sS'y'
F0.61711499999999997
sS'x'
F3.0369570000000001
sS'z'
F0.48859200000000003
sg30
g1227
sg46
g1231
sbag2
(g19
g4
NtRp3086
(dp3087
g22
I3
sg23
F2.5588867798036485
sg24
F-4.4364902413750853
sg25
F1.7501546695828938
sg26
I1
sg27
g1234
sg29
I344
sS'y'
F2.764993
sS'x'
F-0.018737
sS'z'
F-0.26478299999999999
sg30
g1227
sg46
g1235
sbag2
(g19
g4
NtRp3088
(dp3089
g22
I4
sg23
F1.9026759052856133
sg24
F1.8930824709770993
sg25
F3.061968889123035
sg26
I1
sg27
g1238
sg29
I344
sS'y'
F0.878054
sS'x'
F0.269036
sS'z'
F2.9329499999999999
sg30
g1227
sg46
g1239
sbag2
(g19
g4
NtRp3090
(dp3091
g22
I5
sg23
F-9.5550646847978573
sg24
F-12.790884324280535
sg25
F-8.3670882251975591
sg26
I1
sg27
g1242
sg29
I352
sS'y'
F4.1102189999999998
sS'x'
F3.3973049999999998
sS'z'
F3.0445259999999998
sg30
g1243
sg46
g1247
sbasg1861
(lp3092
sg1875
g2261
sg1877
(lp3093
sbag2
(g1868
g4
NtRp3094
(dp3095
g11
g2266
sg13
(lp3096
sg1874
F25.254863907730421
sg17
(lp3097
g2
(g19
g4
NtRp3098
(dp3099
g22
I1
sg23
F23.787392864616393
sg24
F4.6667589787253219
sg25
F2.0779969329948624
sg26
I1
sg27
g1250
sg29
I356
sS'y'
F0.44615899999999997
sS'x'
F0.17773
sS'z'
F0.54408000000000001
sg30
g1251
sg46
g1255
sbag2
(g19
g4
NtRp3100
(dp3101
g22
I2
sg23
F-11.775427789389887
sg24
F-0.29027366224925943
sg25
F4.4877046932914677
sg26
I1
sg27
g1258
sg29
I344
sS'y'
F0.25622099999999998
sS'x'
F2.4719220000000002
sS'z'
F-0.70963799999999999
sg30
g1259
sg46
g1263
sbag2
(g19
g4
NtRp3102
(dp3103
g22
I3
sg23
F1.3577781682833832
sg24
F2.5812704139868869
sg25
F4.4766362538742399
sg26
I1
sg27
g1266
sg29
I344
sS'y'
F3.0501200000000002
sS'x'
F0.33591100000000002
sS'z'
F0.50904199999999999
sg30
g1259
sg46
g1267
sbag2
(g19
g4
NtRp3104
(dp3105
g22
I4
sg23
F-2.6484671012135128
sg24
F5.2915616965071779
sg25
F-2.8453176193707255
sg26
I1
sg27
g1270
sg29
I344
sS'y'
F0.325044
sS'x'
F1.428674
sS'z'
F2.8793700000000002
sg30
g1259
sg46
g1271
sbag2
(g19
g4
NtRp3106
(dp3107
g22
I5
sg23
F-11.420350549279286
sg24
F-12.158175504316116
sg25
F-8.4780987185403571
sg26
I1
sg27
g1274
sg29
I352
sS'y'
F4.0990419999999999
sS'x'
F3.4699659999999999
sS'z'
F3.0383779999999998
sg30
g1275
sg46
g1279
sbasg1861
(lp3108
sg1875
g2269
sg1877
(lp3109
sbag2
(g1868
g4
NtRp3110
(dp3111
g11
g2274
sg13
(lp3112
sg1874
F25.457696423729978
sg17
(lp3113
g2
(g19
g4
NtRp3114
(dp3115
g22
I1
sg23
F20.703641188859084
sg24
F14.216733268574265
sg25
F11.145682196498422
sg26
I1
sg27
g1282
sg29
I356
sS'y'
F0.43864599999999998
sS'x'
F0.24918100000000001
sS'z'
F0.35875499999999999
sg30
g1283
sg46
g1287
sbag2
(g19
g4
NtRp3116
(dp3117
g22
I2
sg23
F-9.4369330549946113
sg24
F2.3584047758438302
sg25
F-1.1692728149213114
sg26
I1
sg27
g1290
sg29
I344
sS'y'
F-0.40944199999999997
sS'x'
F2.7030419999999999
sS'z'
F0.60156100000000001
sg30
g1291
sg46
g1295
sbag2
(g19
g4
NtRp3118
(dp3119
g22
I3
sg23
F-1.8766810327255856
sg24
F-6.4710065513553037
sg25
F6.1495069734317394
sg26
I1
sg27
g1298
sg29
I344
sS'y'
F2.938707
sS'x'
F1.172844
sS'z'
F-0.18637000000000001
sg30
g1291
sg46
g1299
sbag2
(g19
g4
NtRp3120
(dp3121
g22
I4
sg23
F1.0016269015434147
sg24
F0.76872038647585439
sg25
F-6.5935693258518375
sg26
I1
sg27
g1302
sg29
I344
sS'y'
F1.00667
sS'x'
F0.084443000000000004
sS'z'
F2.9204210000000002
sg30
g1291
sg46
g1303
sbag2
(g19
g4
NtRp3122
(dp3123
g22
I5
sg23
F-11.645111894315443
sg24
F-11.713983988141727
sg25
F-10.228156975988348
sg26
I1
sg27
g1306
sg29
I352
sS'y'
F4.0900449999999999
sS'x'
F3.4339810000000002
sS'z'
F3.0031659999999998
sg30
g1307
sg46
g1311
sbasg1861
(lp3124
sg1875
g2277
sg1877
(lp3125
sbag2
(g1868
g4
NtRp3126
(dp3127
g11
g2282
sg13
(lp3128
sg1874
F26.857549122917067
sg17
(lp3129
g2
(g19
g4
NtRp3130
(dp3131
g22
I1
sg23
F15.134295530904989
sg24
F13.993736424740328
sg25
F3.4210508613605288
sg26
I1
sg27
g1314
sg29
I356
sS'y'
F0.34178700000000001
sS'x'
F0.270034
sS'z'
F0.41711100000000001
sg30
g1315
sg46
g1319
sbag2
(g19
g4
NtRp3132
(dp3133
g22
I2
sg23
F-8.0405614883264818
sg24
F-1.5713336878551611
sg25
F4.9829247372454244
sg26
I1
sg27
g1322
sg29
I344
sS'y'
F0.954565
sS'x'
F2.6237140000000001
sS'z'
F-0.61931599999999998
sg30
g1323
sg46
g1327
sbag2
(g19
g4
NtRp3134
(dp3135
g22
I3
sg23
F3.0901540422378897
sg24
F-3.8625991997135154
sg25
F1.7102203449582229
sg26
I1
sg27
g1330
sg29
I344
sS'y'
F2.8900459999999999
sS'x'
F-0.26508799999999999
sS'z'
F0.82510899999999998
sg30
g1323
sg46
g1331
sbag2
(g19
g4
NtRp3136
(dp3137
g22
I4
sg23
F-0.2901642834612787
sg24
F2.6653386876569765
sg25
F-1.9928312998346256
sg26
I1
sg27
g1334
sg29
I344
sS'y'
F0.055690000000000003
sS'x'
F1.2691170000000001
sS'z'
F2.8063060000000002
sg30
g1323
sg46
g1335
sbag2
(g19
g4
NtRp3138
(dp3139
g22
I5
sg23
F-10.652156136972545
sg24
F-12.142083366097118
sg25
F-8.4139572095660444
sg26
I1
sg27
g1338
sg29
I352
sS'y'
F4.1014499999999998
sS'x'
F3.442787
sS'z'
F3.005204
sg30
g1339
sg46
g1343
sbasg1861
(lp3140
sg1875
g2285
sg1877
(lp3141
sbag2
(g1868
g4
NtRp3142
(dp3143
g11
g2290
sg13
(lp3144
sg1874
F26.922595246310486
sg17
(lp3145
g2
(g19
g4
NtRp3146
(dp3147
g22
I1
sg23
F10.387642697701446
sg24
F20.902865613639928
sg25
F8.9351277596122731
sg26
I1
sg27
g1346
sg29
I356
sS'y'
F0.29938199999999998
sS'x'
F0.42917499999999997
sS'z'
F0.37076900000000002
sg30
g1347
sg46
g1351
sbag2
(g19
g4
NtRp3148
(dp3149
g22
I2
sg23
F-6.0802421732223033
sg24
F3.1059054070904901
sg25
F0.96853921401741627
sg26
I1
sg27
g1354
sg29
I344
sS'y'
F0.37412600000000001
sS'x'
F3.042103
sS'z'
F0.82242400000000004
sg30
g1355
sg46
g1359
sbag2
(g19
g4
NtRp3150
(dp3151
g22
I3
sg23
F2.3047502796654573
sg24
F-11.833211432346054
sg25
F4.6246445856003557
sg26
I1
sg27
g1362
sg29
I344
sS'y'
F2.9453819999999999
sS'x'
F0.39521000000000001
sS'z'
F-0.17200299999999999
sg30
g1355
sg46
g1363
sbag2
(g19
g4
NtRp3152
(dp3153
g22
I4
sg23
F2.0906284108380873
sg24
F-0.26011428254611618
sg25
F-5.4854938236334601
sg26
I1
sg27
g1366
sg29
I344
sS'y'
F0.66976800000000003
sS'x'
F-0.142455
sS'z'
F2.8753790000000001
sg30
g1355
sg46
g1367
sbag2
(g19
g4
NtRp3154
(dp3155
g22
I5
sg23
F-9.6385633826679538
sg24
F-12.235065877585852
sg25
F-9.581672550990751
sg26
I1
sg27
g1370
sg29
I352
sS'y'
F4.1271659999999999
sS'x'
F3.4086979999999998
sS'z'
F3.0564870000000002
sg30
g1371
sg46
g1375
sbasg1861
(lp3156
sg1875
g2293
sg1877
(lp3157
sbag2
(g1868
g4
NtRp3158
(dp3159
g11
g2298
sg13
(lp3160
sg1874
F32.381256662073653
sg17
(lp3161
g2
(g19
g4
NtRp3162
(dp3163
g22
I1
sg23
F0.91829170563884222
sg24
F19.756153616554002
sg25
F-14.979233207095557
sg26
I1
sg27
g1378
sg29
I356
sS'y'
F0.23491999999999999
sS'x'
F0.42552400000000001
sS'z'
F0.64988500000000005
sg30
g1379
sg46
g1383
sbag2
(g19
g4
NtRp3164
(dp3165
g22
I2
sg23
F-2.9924232064248426
sg24
F-3.0524435798429601
sg25
F5.1177742485533813
sg26
I1
sg27
g1386
sg29
I344
sS'y'
F0.903173
sS'x'
F2.659135
sS'z'
F-0.52162900000000001
sg30
g1387
sg46
g1391
sbag2
(g19
g4
NtRp3166
(dp3167
g22
I3
sg23
F3.6852524274269864
sg24
F-12.735210536613685
sg25
F5.0980915474549038
sg26
I1
sg27
g1394
sg29
I344
sS'y'
F2.528235
sS'x'
F-0.678535
sS'z'
F-0.091366000000000003
sg30
g1387
sg46
g1395
sbag2
(g19
g4
NtRp3168
(dp3169
g22
I4
sg23
F7.3555120208266329
sg24
F7.0808997584549056
sg25
F11.031001724120991
sg26
I1
sg27
g1398
sg29
I344
sS'y'
F1.1931240000000001
sS'x'
F1.161592
sS'z'
F2.9169100000000001
sg30
g1387
sg46
g1399
sbag2
(g19
g4
NtRp3170
(dp3171
g22
I5
sg23
F-9.6569370767187852
sg24
F-11.978008468976908
sg25
F-6.206348345657652
sg26
I1
sg27
g1402
sg29
I352
sS'y'
F4.4323600000000001
sS'x'
F3.7012139999999998
sS'z'
F3.21949
sg30
g1403
sg46
g1407
sbasg1861
(lp3172
sg1875
g2301
sg1877
(lp3173
sbag2
(g1868
g4
NtRp3174
(dp3175
g11
g2306
sg13
(lp3176
sg1874
F33.087004861289167
sg17
(lp3177
g2
(g19
g4
NtRp3178
(dp3179
g22
I1
sg23
F2.4833592118516559
sg24
F14.911448172956161
sg25
F22.207268885205014
sg26
I1
sg27
g1410
sg29
I356
sS'y'
F0.36022599999999999
sS'x'
F0.54872900000000002
sS'z'
F0.22644300000000001
sg30
g1411
sg46
g1415
sbag2
(g19
g4
NtRp3180
(dp3181
g22
I2
sg23
F-1.402096113365213
sg24
F3.4746356933503622
sg25
F0.68662092506044914
sg26
I1
sg27
g1418
sg29
I344
sS'y'
F0.97532200000000002
sS'x'
F3.068997
sS'z'
F0.85893900000000001
sg30
g1419
sg46
g1423
sbag2
(g19
g4
NtRp3182
(dp3183
g22
I3
sg23
F3.4787676599453512
sg24
F-5.5410801495355431
sg25
F-2.5208705557843212
sg26
I1
sg27
g1426
sg29
I344
sS'y'
F2.88713
sS'x'
F-0.13581399999999999
sS'z'
F0.329121
sg30
g1419
sg46
g1427
sbag2
(g19
g4
NtRp3184
(dp3185
g22
I4
sg23
F3.1941083236917365
sg24
F-1.3407299697402901
sg25
F-12.22978547225536
sg26
I1
sg27
g1430
sg29
I344
sS'y'
F0.055695000000000001
sS'x'
F-0.12218999999999999
sS'z'
F2.7442859999999998
sg30
g1419
sg46
g1431
sbag2
(g19
g4
NtRp3186
(dp3187
g22
I5
sg23
F-7.8926593278166468
sg24
F-11.738616173963372
sg25
F-8.4375742635693332
sg26
I1
sg27
g1434
sg29
I352
sS'y'
F4.477417
sS'x'
F3.7445040000000001
sS'z'
F3.2052230000000002
sg30
g1435
sg46
g1439
sbasg1861
(lp3188
sg1875
g2309
sg1877
(lp3189
sbag2
(g1868
g4
NtRp3190
(dp3191
g11
g2314
sg13
(lp3192
sg1874
F33.671440493632858
sg17
(lp3193
g2
(g19
g4
NtRp3194
(dp3195
g22
I1
sg23
F10.490029565150889
sg24
F1.0294772185604564
sg25
F5.3892086077777845
sg26
I1
sg27
g1442
sg29
I356
sS'y'
F0.37476300000000001
sS'x'
F0.34335199999999999
sS'z'
F0.44262200000000002
sg30
g1443
sg46
g1447
sbag2
(g19
g4
NtRp3196
(dp3197
g22
I2
sg23
F-2.6135860158809163
sg24
F0.84206752781788163
sg25
F0.4669077773219546
sg26
I1
sg27
g1450
sg29
I344
sS'y'
F0.40940100000000001
sS'x'
F2.9410829999999999
sS'z'
F0.17486399999999999
sg30
g1451
sg46
g1455
sbag2
(g19
g4
NtRp3198
(dp3199
g22
I3
sg23
F0.073480253789025521
sg24
F6.2097542093251121
sg25
F0.12769414691507991
sg26
I1
sg27
g1458
sg29
I344
sS'y'
F2.8843049999999999
sS'x'
F0.15549399999999999
sS'z'
F0.026232999999999999
sg30
g1451
sg46
g1459
sbag2
(g19
g4
NtRp3200
(dp3201
g22
I4
sg23
F0.48624039064526181
sg24
F1.8993338527294543
sg25
F0.66399747479260562
sg26
I1
sg27
g1462
sg29
I344
sS'y'
F0.67259800000000003
sS'x'
F0.55534300000000003
sS'z'
F3.0142760000000002
sg30
g1451
sg46
g1463
sbag2
(g19
g4
NtRp3202
(dp3203
g22
I5
sg23
F-8.6290445705198522
sg24
F-10.559774656830779
sg25
F-7.0924205816900772
sg26
I1
sg27
g1466
sg29
I352
sS'y'
F4.3941160000000004
sS'x'
F3.7651309999999998
sS'z'
F3.2426759999999999
sg30
g1467
sg46
g1471
sbasg1861
(lp3204
sg1875
g2317
sg1877
(lp3205
sbag2
(g1868
g4
NtRp3206
(dp3207
g11
g2322
sg13
(lp3208
sg1874
F34.061908692045165
sg17
(lp3209
g2
(g19
g4
NtRp3210
(dp3211
g22
I1
sg23
F5.5863982806931238
sg24
F4.1804757097832788
sg25
F10.209360553631859
sg26
I1
sg27
g1474
sg29
I356
sS'y'
F0.39774700000000002
sS'x'
F0.44112800000000002
sS'z'
F0.25836900000000002
sg30
g1475
sg46
g1479
sbag2
(g19
g4
NtRp3212
(dp3213
g22
I2
sg23
F1.8687832512567539
sg24
F1.6321678844685799
sg25
F-1.2671159750336556
sg26
I1
sg27
g1482
sg29
I344
sS'y'
F0.25993500000000003
sS'x'
F2.9605679999999999
sS'z'
F0.87609700000000001
sg30
g1483
sg46
g1487
sbag2
(g19
g4
NtRp3214
(dp3215
g22
I3
sg23
F2.6604242810802536
sg24
F6.1092516414342839
sg25
F-1.0372821239309178
sg26
I1
sg27
g1490
sg29
I344
sS'y'
F2.9776910000000001
sS'x'
F0.52542699999999998
sS'z'
F0.17278299999999999
sg30
g1483
sg46
g1491
sbag2
(g19
g4
NtRp3216
(dp3217
g22
I4
sg23
F-1.8401046123459945
sg24
F-1.8553344402691543
sg25
F-0.31230504932717207
sg26
I1
sg27
g1494
sg29
I344
sS'y'
F0.52125500000000002
sS'x'
F-0.17378299999999999
sS'z'
F2.7449539999999999
sg30
g1483
sg46
g1495
sbag2
(g19
g4
NtRp3218
(dp3219
g22
I5
sg23
F-8.628840608090707
sg24
F-10.588810277720734
sg25
F-8.2937480788520119
sg26
I1
sg27
g1498
sg29
I352
sS'y'
F4.4720589999999998
sS'x'
F3.6849750000000001
sS'z'
F3.2793049999999999
sg30
g1499
sg46
g1503
sbasg1861
(lp3220
sg1875
g2325
sg1877
(lp3221
sbag2
(g1868
g4
NtRp3222
(dp3223
g11
g2330
sg13
(lp3224
sg1874
F34.266156752639191
sg17
(lp3225
g2
(g19
g4
NtRp3226
(dp3227
g22
I1
sg23
F-2.1750433951431578
sg24
F11.109771594485238
sg25
F10.735046456318488
sg26
I1
sg27
g1506
sg29
I356
sS'y'
F0.33080100000000001
sS'x'
F0.39715099999999998
sS'z'
F0.41942499999999999
sg30
g1507
sg46
g1511
sbag2
(g19
g4
NtRp3228
(dp3229
g22
I2
sg23
F6.9522904670240946
sg24
F1.5195967895056437
sg25
F0.4747682537239522
sg26
I1
sg27
g1514
sg29
I344
sS'y'
F0.46142699999999998
sS'x'
F2.942151
sS'z'
F0.36174499999999998
sg30
g1515
sg46
g1519
sbag2
(g19
g4
NtRp3230
(dp3231
g22
I3
sg23
F1.2338341185479029
sg24
F-2.3927982367583147
sg25
F0.74943179811174487
sg26
I1
sg27
g1522
sg29
I344
sS'y'
F2.7840790000000002
sS'x'
F0.068271999999999999
sS'z'
F-0.343391
sg30
g1515
sg46
g1523
sbag2
(g19
g4
NtRp3232
(dp3233
g22
I4
sg23
F2.4392394816573626
sg24
F-0.16100770322129299
sg25
F-5.8048343927511645
sg26
I1
sg27
g1526
sg29
I344
sS'y'
F1.011789
sS'x'
F0.32598100000000002
sS'z'
F2.9912920000000001
sg30
g1515
sg46
g1527
sbag2
(g19
g4
NtRp3234
(dp3235
g22
I5
sg23
F-8.6700592408680155
sg24
F-10.737165954481407
sg25
F-6.52714194831435
sg26
I1
sg27
g1530
sg29
I352
sS'y'
F4.46157
sS'x'
F3.7400519999999999
sS'z'
F3.2135940000000001
sg30
g1531
sg46
g1535
sbasg1861
(lp3236
sg1875
g2333
sg1877
(lp3237
sbag2
(g1868
g4
NtRp3238
(dp3239
g11
g2338
sg13
(lp3240
sg1874
F34.77083126535998
sg17
(lp3241
g2
(g19
g4
NtRp3242
(dp3243
g22
I1
sg23
F7.0705706162906576
sg24
F19.293474827459853
sg25
F8.0619982758019439
sg26
I1
sg27
g1538
sg29
I356
sS'y'
F0.34372799999999998
sS'x'
F0.39726800000000001
sS'z'
F0.33755600000000002
sg30
g1539
sg46
g1543
sbag2
(g19
g4
NtRp3244
(dp3245
g22
I2
sg23
F-1.1270086382770441
sg24
F0.82416564799901981
sg25
F0.24475926446303739
sg26
I1
sg27
g1546
sg29
I344
sS'y'
F0.232485
sS'x'
F2.97526
sS'z'
F0.61863800000000002
sg30
g1547
sg46
g1551
sbag2
(g19
g4
NtRp3246
(dp3247
g22
I3
sg23
F1.7205519464584094
sg24
F-8.8497699650408563
sg25
F1.398015375425576
sg26
I1
sg27
g1554
sg29
I344
sS'y'
F2.9932979999999998
sS'x'
F0.46634199999999998
sS'z'
F-0.073136999999999994
sg30
g1547
sg46
g1555
sbag2
(g19
g4
NtRp3248
(dp3249
g22
I4
sg23
F1.10480836335905
sg24
F-1.4410710028971867
sg25
F-2.3378671009545533
sg26
I1
sg27
g1558
sg29
I344
sS'y'
F0.76699200000000001
sS'x'
F0.0026480000000000002
sS'z'
F2.8608570000000002
sg30
g1547
sg46
g1559
sbag2
(g19
g4
NtRp3250
(dp3251
g22
I5
sg23
F-8.4223451732097967
sg24
F-9.7771030184581118
sg25
F-7.7453575749263432
sg26
I1
sg27
g1562
sg29
I352
sS'y'
F4.432099
sS'x'
F3.7619099999999999
sS'z'
F3.2299570000000002
sg30
g1563
sg46
g1567
sbasg1861
(lp3252
sg1875
g2341
sg1877
(lp3253
sbag2
(g1868
g4
NtRp3254
(dp3255
g11
g2346
sg13
(lp3256
sg1874
F34.828737432176624
sg17
(lp3257
g2
(g19
g4
NtRp3258
(dp3259
g22
I1
sg23
F1.5202974986631066
sg24
F21.726966850516082
sg25
F1.2339439775822938
sg26
I1
sg27
g1570
sg29
I356
sS'y'
F0.23118900000000001
sS'x'
F0.486925
sS'z'
F0.384745
sg30
g1571
sg46
g1575
sbag2
(g19
g4
NtRp3260
(dp3261
g22
I2
sg23
F1.236851073929131
sg24
F1.0522368560381172
sg25
F1.4950215360065957
sg26
I1
sg27
g1578
sg29
I344
sS'y'
F1.1453199999999999
sS'x'
F2.946612
sS'z'
F0.25304500000000002
sg30
g1579
sg46
g1583
sbag2
(g19
g4
NtRp3262
(dp3263
g22
I3
sg23
F4.0381097041972209
sg24
F-11.106718895727358
sg25
F-0.4946969915802894
sg26
I1
sg27
g1586
sg29
I344
sS'y'
F2.683265
sS'x'
F-0.49762299999999998
sS'z'
F0.13491700000000001
sg30
g1579
sg46
g1587
sbag2
(g19
g4
NtRp3264
(dp3265
g22
I4
sg23
F0.85356459723554412
sg24
F-1.3004288364648158
sg25
F5.2833480694251271
sg26
I1
sg27
g1590
sg29
I344
sS'y'
F0.46845100000000001
sS'x'
F0.50959399999999999
sS'z'
F2.9196650000000002
sg30
g1579
sg46
g1591
sbag2
(g19
g4
NtRp3266
(dp3267
g22
I5
sg23
F-7.9080147775285976
sg24
F-11.330711967457987
sg25
F-8.1595320445756645
sg26
I1
sg27
g1594
sg29
I352
sS'y'
F4.4781620000000002
sS'x'
F3.7311450000000002
sS'z'
F3.2401170000000001
sg30
g1595
sg46
g1599
sbasg1861
(lp3268
sg1875
g2349
sg1877
(lp3269
sbag2
(g1868
g4
NtRp3270
(dp3271
g11
g2354
sg13
(lp3272
sg1874
F39.227888044633026
sg17
(lp3273
g2
(g19
g4
NtRp3274
(dp3275
g22
I1
sg23
F1.0148846230772539
sg24
F3.2078947206325217
sg25
F-0.78246712929267215
sg26
I1
sg27
g1602
sg29
I356
sS'y'
F0.55539099999999997
sS'x'
F0.31337300000000001
sS'z'
F0.30956400000000001
sg30
g1603
sg46
g1607
sbag2
(g19
g4
NtRp3276
(dp3277
g22
I2
sg23
F4.4855771305462362
sg24
F1.5374520996522301
sg25
F-1.7313249204971179
sg26
I1
sg27
g1610
sg29
I344
sS'y'
F0.44303399999999998
sS'x'
F2.8389060000000002
sS'z'
F-0.049250000000000002
sg30
g1611
sg46
g1615
sbag2
(g19
g4
NtRp3278
(dp3279
g22
I3
sg23
F3.7727176760556667
sg24
F5.1932869430961777
sg25
F2.8033696559356951
sg26
I1
sg27
g1618
sg29
I344
sS'y'
F3.0897939999999999
sS'x'
F0.33966600000000002
sS'z'
F0.98788100000000001
sg30
g1611
sg46
g1619
sbag2
(g19
g4
NtRp3280
(dp3281
g22
I4
sg23
F-1.1615992267063291
sg24
F-1.9024762650741625
sg25
F6.2767834897678707
sg26
I1
sg27
g1622
sg29
I344
sS'y'
F-0.28245599999999998
sS'x'
F0.48641600000000002
sS'z'
F2.6841059999999999
sg30
g1611
sg46
g1623
sbag2
(g19
g4
NtRp3282
(dp3283
g22
I5
sg23
F-8.3863508043647226
sg24
F-8.1376942454186416
sg25
F-6.8224099680884018
sg26
I1
sg27
g1626
sg29
I352
sS'y'
F4.799239
sS'x'
F3.9740790000000001
sS'z'
F3.4576220000000002
sg30
g1627
sg46
g1631
sbasg1861
(lp3284
sg1875
g2357
sg1877
(lp3285
sbag2
(g1868
g4
NtRp3286
(dp3287
g11
g2362
sg13
(lp3288
sg1874
F39.832424499019503
sg17
(lp3289
g2
(g19
g4
NtRp3290
(dp3291
g22
I1
sg23
F-10.161909103886888
sg24
F-8.1165520185611779
sg25
F7.0180613133306915
sg26
I1
sg27
g1634
sg29
I356
sS'y'
F0.47776999999999997
sS'x'
F0.53646199999999999
sS'z'
F0.25632700000000003
sg30
g1635
sg46
g1639
sbag2
(g19
g4
NtRp3292
(dp3293
g22
I2
sg23
F16.219780847923548
sg24
F6.707999564947837
sg25
F4.0272391215578613
sg26
I1
sg27
g1642
sg29
I344
sS'y'
F0.90674900000000003
sS'x'
F2.970351
sS'z'
F0.819021
sg30
g1643
sg46
g1647
sbag2
(g19
g4
NtRp3294
(dp3295
g22
I3
sg23
F-0.29731819051381403
sg24
F11.535842475636391
sg25
F-0.1734975878216522
sg26
I1
sg27
g1650
sg29
I344
sS'y'
F2.8991600000000002
sS'x'
F-0.13609399999999999
sS'z'
F0.57230700000000001
sg30
g1643
sg46
g1651
sbag2
(g19
g4
NtRp3296
(dp3297
g22
I4
sg23
F1.0109989624152731
sg24
F-0.7393587209618796
sg25
F-4.4969516209215001
sg26
I1
sg27
g1654
sg29
I344
sS'y'
F-0.11724999999999999
sS'x'
F-0.082185999999999995
sS'z'
F2.6998359999999999
sg30
g1643
sg46
g1655
sbag2
(g19
g4
NtRp3298
(dp3299
g22
I5
sg23
F-6.8253635677030715
sg24
F-9.0827910360712796
sg25
F-6.4728119114477947
sg26
I1
sg27
g1658
sg29
I352
sS'y'
F4.7628199999999996
sS'x'
F3.9684949999999999
sS'z'
F3.478926
sg30
g1659
sg46
g1663
sbasg1861
(lp3300
sg1875
g2365
sg1877
(lp3301
sbag2
(g1868
g4
NtRp3302
(dp3303
g11
g2370
sg13
(lp3304
sg1874
F40.055102123547151
sg17
(lp3305
g2
(g19
g4
NtRp3306
(dp3307
g22
I1
sg23
F19.815679012447859
sg24
F4.1765443913243052
sg25
F6.4111328866936663
sg26
I1
sg27
g1666
sg29
I356
sS'y'
F0.51003500000000002
sS'x'
F0.23949899999999999
sS'z'
F0.42287799999999998
sg30
g1667
sg46
g1671
sbag2
(g19
g4
NtRp3308
(dp3309
g22
I2
sg23
F-8.8229297591920428
sg24
F-0.64505378991402251
sg25
F1.2883325203195592
sg26
I1
sg27
g1674
sg29
I344
sS'y'
F0.76008900000000001
sS'x'
F2.6722670000000002
sS'z'
F-0.54604299999999995
sg30
g1675
sg46
g1679
sbag2
(g19
g4
NtRp3310
(dp3311
g22
I3
sg23
F0.9643979543579394
sg24
F3.1489195068842366
sg25
F2.2957664535490636
sg26
I1
sg27
g1682
sg29
I344
sS'y'
F3.0328970000000002
sS'x'
F0.175482
sS'z'
F1.075288
sg30
g1675
sg46
g1683
sbag2
(g19
g4
NtRp3312
(dp3313
g22
I4
sg23
F-3.9915179963191356
sg24
F1.6220708471731184
sg25
F-3.7293637076560442
sg26
I1
sg27
g1686
sg29
I344
sS'y'
F-0.21123400000000001
sS'x'
F1.185891
sS'z'
F2.7381449999999998
sg30
g1675
sg46
g1687
sbag2
(g19
g4
NtRp3314
(dp3315
g22
I5
sg23
F-8.0628971061692507
sg24
F-8.3574120414680664
sg25
F-6.3842621466595082
sg26
I1
sg27
g1690
sg29
I352
sS'y'
F4.753876
sS'x'
F4.0272430000000004
sS'z'
F3.437163
sg30
g1691
sg46
g1695
sbasg1861
(lp3316
sg1875
g2373
sg1877
(lp3317
sbag2
(g1868
g4
NtRp3318
(dp3319
g11
g2378
sg13
(lp3320
sg1874
F40.552987254049661
sg17
(lp3321
g2
(g19
g4
NtRp3322
(dp3323
g22
I1
sg23
F13.007500549088622
sg24
F5.2645112281077946
sg25
F5.8361982387518863
sg26
I1
sg27
g1698
sg29
I356
sS'y'
F0.29817199999999999
sS'x'
F0.37974400000000003
sS'z'
F0.50720299999999996
sg30
g1699
sg46
g1703
sbag2
(g19
g4
NtRp3324
(dp3325
g22
I2
sg23
F-4.9445103806514075
sg24
F-0.17537889206561877
sg25
F0.83239917151198073
sg26
I1
sg27
g1706
sg29
I344
sS'y'
F0.37721700000000002
sS'x'
F2.998777
sS'z'
F0.96189499999999994
sg30
g1707
sg46
g1711
sbag2
(g19
g4
NtRp3326
(dp3327
g22
I3
sg23
F-1.2768511958693931
sg24
F3.4760427346985665
sg25
F-3.8573109100413356
sg26
I1
sg27
g1714
sg29
I344
sS'y'
F2.5161030000000002
sS'x'
F0.48731000000000002
sS'z'
F-0.71509800000000001
sg30
g1707
sg46
g1715
sbag2
(g19
g4
NtRp3328
(dp3329
g22
I4
sg23
F-0.01528112061136693
sg24
F0.34573257581420702
sg25
F3.1501311780637633
sg26
I1
sg27
g1718
sg29
I344
sS'y'
F1.4643250000000001
sS'x'
F-0.13392399999999999
sS'z'
F2.7491620000000001
sg30
g1707
sg46
g1719
sbag2
(g19
g4
NtRp3330
(dp3331
g22
I5
sg23
F-7.0331853423767665
sg24
F-9.6606168444796303
sg25
F-6.1945219244376011
sg26
I1
sg27
g1722
sg29
I352
sS'y'
F4.7365000000000004
sS'x'
F4.0043769999999999
sS'z'
F3.495835
sg30
g1723
sg46
g1727
sbasg1861
(lp3332
sg1875
g2381
sg1877
(lp3333
sbag2
(g1868
g4
NtRp3334
(dp3335
g11
g2386
sg13
(lp3336
sg1874
F41.460192971556637
sg17
(lp3337
g2
(g19
g4
NtRp3338
(dp3339
g22
I1
sg23
F12.900370433697292
sg24
F4.8710678801591989
sg25
F4.4391561271440381
sg26
I1
sg27
g1730
sg29
I356
sS'y'
F0.36165700000000001
sS'x'
F0.378243
sS'z'
F0.32255400000000001
sg30
g1731
sg46
g1735
sbag2
(g19
g4
NtRp3340
(dp3341
g22
I2
sg23
F-3.485317580653251
sg24
F0.6637828615652962
sg25
F-2.6556835138185897
sg26
I1
sg27
g1738
sg29
I344
sS'y'
F0.00762
sS'x'
F2.8807849999999999
sS'z'
F1.0479430000000001
sg30
g1739
sg46
g1743
sbag2
(g19
g4
NtRp3342
(dp3343
g22
I3
sg23
F0.95803625941224213
sg24
F2.2990332093970562
sg25
F-0.32383145290705168
sg26
I1
sg27
g1746
sg29
I344
sS'y'
F2.8764729999999998
sS'x'
F0.79622599999999999
sS'z'
F-0.16758700000000001
sg30
g1739
sg46
g1747
sbag2
(g19
g4
NtRp3344
(dp3345
g22
I4
sg23
F-3.5961156200988955
sg24
F0.49592863033834261
sg25
F4.75154514370222
sg26
I1
sg27
g1750
sg29
I344
sS'y'
F0.83623800000000004
sS'x'
F-0.27985700000000002
sS'z'
F2.725349
sg30
g1739
sg46
g1751
sbag2
(g19
g4
NtRp3346
(dp3347
g22
I5
sg23
F-6.8729094955535759
sg24
F-8.6782089252156744
sg25
F-6.388646641046555
sg26
I1
sg27
g1754
sg29
I352
sS'y'
F4.7783439999999997
sS'x'
F4.0174019999999997
sS'z'
F3.4665979999999998
sg30
g1755
sg46
g1759
sbasg1861
(lp3348
sg1875
g2389
sg1877
(lp3349
sbag2
(g1868
g4
NtRp3350
(dp3351
g11
g2394
sg13
(lp3352
sg1874
F41.64788810839238
sg17
(lp3353
g2
(g19
g4
NtRp3354
(dp3355
g22
I1
sg23
F20.2937920756981
sg24
F8.6116408497094934
sg25
F9.0979046479205294
sg26
I1
sg27
g1762
sg29
I356
sS'y'
F0.40095999999999998
sS'x'
F0.228437
sS'z'
F0.37376300000000001
sg30
g1763
sg46
g1767
sbag2
(g19
g4
NtRp3356
(dp3357
g22
I2
sg23
F-8.3073208028998184
sg24
F-1.2732111047625914
sg25
F-1.6743758651680809
sg26
I1
sg27
g1770
sg29
I344
sS'y'
F-0.26539800000000002
sS'x'
F2.758375
sS'z'
F0.51822199999999996
sg30
g1771
sg46
g1775
sbag2
(g19
g4
NtRp3358
(dp3359
g22
I3
sg23
F-2.3306014743574597
sg24
F1.3182484838687114
sg25
F-0.59311886758973897
sg26
I1
sg27
g1778
sg29
I344
sS'y'
F2.7998050000000001
sS'x'
F0.96098899999999998
sS'z'
F-0.30512400000000001
sg30
g1771
sg46
g1779
sbag2
(g19
g4
NtRp3360
(dp3361
g22
I4
sg23
F-1.8852520710441161
sg24
F0.092287026937898003
sg25
F-0.64177245354785506
sg26
I1
sg27
g1782
sg29
I344
sS'y'
F1.114163
sS'x'
F0.26633099999999998
sS'z'
F2.879902
sg30
g1771
sg46
g1783
sbag2
(g19
g4
NtRp3362
(dp3363
g22
I5
sg23
F-7.4452286693699614
sg24
F-8.5286457939575335
sg25
F-6.1205171063880615
sg26
I1
sg27
g1786
sg29
I352
sS'y'
F4.7342110000000002
sS'x'
F4.0207540000000002
sS'z'
F3.4319549999999999
sg30
g1787
sg46
g1791
sbasg1861
(lp3364
sg1875
g2397
sg1877
(lp3365
sbag2
(g1868
g4
NtRp3366
(dp3367
g11
g2402
sg13
(lp3368
sg1874
F42.791992609552949
sg17
(lp3369
g2
(g19
g4
NtRp3370
(dp3371
g22
I1
sg23
F6.9956963731836455
sg24
F12.169013695817343
sg25
F26.17498075628782
sg26
I1
sg27
g1794
sg29
I356
sS'y'
F0.416912
sS'x'
F0.35700300000000001
sS'z'
F0.30551699999999998
sg30
g1795
sg46
g1799
sbag2
(g19
g4
NtRp3372
(dp3373
g22
I2
sg23
F1.2480670640162987
sg24
F0.62612222858926381
sg25
F-0.87784416124108189
sg26
I1
sg27
g1802
sg29
I344
sS'y'
F1.0487869999999999
sS'x'
F2.7350319999999999
sS'z'
F-0.40296500000000002
sg30
g1803
sg46
g1807
sbag2
(g19
g4
NtRp3374
(dp3375
g22
I3
sg23
F3.4012519963630594
sg24
F-8.0462797432026978
sg25
F-3.1660836795993443
sg26
I1
sg27
g1810
sg29
I344
sS'y'
F2.9202210000000002
sS'x'
F-0.251637
sS'z'
F1.0089669999999999
sg30
g1803
sg46
g1811
sbag2
(g19
g4
NtRp3376
(dp3377
g22
I4
sg23
F-4.1967982998747777
sg24
F3.3672301856946705
sg25
F-16.546967278537053
sg26
I1
sg27
g1814
sg29
I344
sS'y'
F-0.17688200000000001
sS'x'
F1.090506
sS'z'
F2.8592629999999999
sg30
g1803
sg46
g1815
sbag2
(g19
g4
NtRp3378
(dp3379
g22
I5
sg23
F-7.4307823237411137
sg24
F-8.3309416443278828
sg25
F-5.8983686848352512
sg26
I1
sg27
g1818
sg29
I352
sS'y'
F4.7609279999999998
sS'x'
F4.0244989999999996
sS'z'
F3.478723
sg30
g1819
sg46
g1823
sbasg1861
(lp3380
sg1875
g2405
sg1877
(lp3381
sbag2
(g1868
g4
NtRp3382
(dp3383
g11
g2410
sg13
(lp3384
sg1874
F42.838777406724518
sg17
(lp3385
g2
(g19
g4
NtRp3386
(dp3387
g22
I1
sg23
F19.929480568675796
sg24
F27.519810318086076
sg25
F6.570480987572477
sg26
I1
sg27
g1826
sg29
I356
sS'y'
F0.27385300000000001
sS'x'
F0.32613999999999999
sS'z'
F0.48713000000000001
sg30
g1827
sg46
g1831
sbag2
(g19
g4
NtRp3388
(dp3389
g22
I2
sg23
F-13.128925226155689
sg24
F-3.2122989632262766
sg25
F4.0227768592687738
sg26
I1
sg27
g1834
sg29
I344
sS'y'
F0.61711199999999999
sS'x'
F2.84857
sS'z'
F-0.31534800000000002
sg30
g1835
sg46
g1839
sbag2
(g19
g4
NtRp3390
(dp3391
g22
I3
sg23
F1.5602134067272879
sg24
F-13.820515933168451
sg25
F1.6391072719715007
sg26
I1
sg27
g1842
sg29
I344
sS'y'
F2.840843
sS'x'
F-0.26612999999999998
sS'z'
F0.073934
sg30
g1835
sg46
g1843
sbag2
(g19
g4
NtRp3392
(dp3393
g22
I4
sg23
F-1.4074807286093605
sg24
F-1.6429082657842429
sg25
F-6.6942892259947131
sg26
I1
sg27
g1846
sg29
I344
sS'y'
F0.815465
sS'x'
F0.98706499999999997
sS'z'
F3.0135160000000001
sg30
g1835
sg46
g1847
sbag2
(g19
g4
NtRp3394
(dp3395
g22
I5
sg23
F-7.5349880847454695
sg24
F-9.4019942665735776
sg25
F-5.5416497846252168
sg26
I1
sg27
g1850
sg29
I352
sS'y'
F4.8155780000000004
sS'x'
F3.9785029999999999
sS'z'
F3.4794260000000001
sg30
g1851
sg46
g1855
sbasg1861
(lp3396
sg1875
g2413
sg1877
(lp3397
sbasa.