(lp1
ccopy_reg
_reconstructor
p2
(cstructures
System
p3
c__builtin__
object
p4
NtRp5
(dp6
S'xlo'
p7
F-500
sS'xz'
p8
F0
sS'xhi'
p9
F68100
sS'yhi'
p10
F50
sS'name'
p11
S'training_set'
p12
sS'bonds'
p13
(lp14
sS'zlo'
p15
F-50
sS'zhi'
p16
F50
sS'atoms'
p17
(lp18
g2
(cstructures
Atom
p19
g4
NtRp20
(dp21
S'index'
p22
I1
sS'fx'
p23
F9.6891195519362912e-06
sS'fy'
p24
F2.9834567118677896e-06
sS'fz'
p25
F-3.5099490727856352e-07
sS'molecule_index'
p26
I1
sS'element'
p27
S'Cs'
p28
sS'type_index'
p29
I352
sS'y'
F3.093521
sS'x'
F2.8033429999999999
sS'z'
F2.5038079999999998
sS'type'
p30
g2
(cstructures
Struct
p31
g4
NtRp32
(dp33
S'bond_count'
p34
I0
sS'style'
p35
S'lj/cut'
p36
sg22
I352
sS'notes'
p37
S'Cesium Ion Cs+'
p38
sS'vdw_r'
p39
F6.2000000000000002
sg27
I55
sS'vdw_e'
p40
F0.01
sS'charge'
p41
F1
sS'mass'
p42
F132.905
sS'index2'
p43
I72
sS'element_name'
p44
S'Cs'
p45
sbsS'bonded'
p46
(lp47
sbag2
(g19
g4
NtRp48
(dp49
g22
I2
sg23
F-5.1878470248098499e-06
sg24
F-3.0474895665740144e-06
sg25
F-4.7479175971059732e-06
sg26
I2
sg27
S'Cs'
p50
sg29
I352
sS'y'
F3.252548
sS'x'
F1002.853422
sS'z'
F2.4675699999999998
sg30
g2
(g31
g4
NtRp51
(dp52
g34
I0
sg35
g36
sg22
I352
sg37
S'Cesium Ion Cs+'
p53
sg39
F6.2000000000000002
sg27
I55
sg40
F0.01
sg41
F1
sg42
F132.905
sg43
I72
sg44
S'Cs'
p54
sbsg46
(lp55
sbag2
(g19
g4
NtRp56
(dp57
g22
I3
sg23
F-8.6966103039898127e-06
sg24
F-2.6621066447309969e-06
sg25
F-8.9254684698842823e-06
sg26
I3
sg27
S'Cs'
p58
sg29
I352
sS'y'
F3.2160410000000001
sS'x'
F2002.662626
sS'z'
F2.5145810000000002
sg30
g2
(g31
g4
NtRp59
(dp60
g34
I0
sg35
g36
sg22
I352
sg37
S'Cesium Ion Cs+'
p61
sg39
F6.2000000000000002
sg27
I55
sg40
F0.01
sg41
F1
sg42
F132.905
sg43
I72
sg44
S'Cs'
p62
sbsg46
(lp63
sbag2
(g19
g4
NtRp64
(dp65
g22
I4
sg23
F1.2344111435033265e-06
sg24
F2.4344342724421988e-06
sg25
F6.9297778315402883e-06
sg26
I4
sg27
S'Cs'
p66
sg29
I352
sS'y'
F3.2665410000000001
sS'x'
F3002.8546000000001
sS'z'
F2.4970850000000002
sg30
g2
(g31
g4
NtRp67
(dp68
g34
I0
sg35
g36
sg22
I352
sg37
S'Cesium Ion Cs+'
p69
sg39
F6.2000000000000002
sg27
I55
sg40
F0.01
sg41
F1
sg42
F132.905
sg43
I72
sg44
S'Cs'
p70
sbsg46
(lp71
sbag2
(g19
g4
NtRp72
(dp73
g22
I5
sg23
F-1.2880090144796476e-05
sg24
F-8.9290258507012949e-06
sg25
F-2.9028227466821738e-06
sg26
I5
sg27
S'Cs'
p74
sg29
I352
sS'y'
F3.0996869999999999
sS'x'
F4002.663931
sS'z'
F2.5423840000000002
sg30
g2
(g31
g4
NtRp75
(dp76
g34
I0
sg35
g36
sg22
I352
sg37
S'Cesium Ion Cs+'
p77
sg39
F6.2000000000000002
sg27
I55
sg40
F0.01
sg41
F1
sg42
F132.905
sg43
I72
sg44
S'Cs'
p78
sbsg46
(lp79
sbag2
(g19
g4
NtRp80
(dp81
g22
I6
sg23
F2.1368000774188224e-06
sg24
F2.2198056298157803e-06
sg25
F1.8747396905655705e-06
sg26
I6
sg27
S'Cs'
p82
sg29
I352
sS'y'
F3.0948220000000002
sS'x'
F5002.7893830000003
sS'z'
F2.5325479999999998
sg30
g2
(g31
g4
NtRp83
(dp84
g34
I0
sg35
g36
sg22
I352
sg37
S'Cesium Ion Cs+'
p85
sg39
F6.2000000000000002
sg27
I55
sg40
F0.01
sg41
F1
sg42
F132.905
sg43
I72
sg44
S'Cs'
p86
sbsg46
(lp87
sbag2
(g19
g4
NtRp88
(dp89
g22
I7
sg23
F4.043556195337505e-07
sg24
F-3.0972928980121886e-06
sg25
F-4.4194527683351561e-06
sg26
I7
sg27
S'Cs'
p90
sg29
I352
sS'y'
F3.1900339999999998
sS'x'
F6002.8186539999997
sS'z'
F2.2864200000000001
sg30
g2
(g31
g4
NtRp91
(dp92
g34
I0
sg35
g36
sg22
I352
sg37
S'Cesium Ion Cs+'
p93
sg39
F6.2000000000000002
sg27
I55
sg40
F0.01
sg41
F1
sg42
F132.905
sg43
I72
sg44
S'Cs'
p94
sbsg46
(lp95
sbag2
(g19
g4
NtRp96
(dp97
g22
I8
sg23
F4.8498958471936648e-07
sg24
F-3.5063916919686229e-06
sg25
F-5.4688801093538345e-06
sg26
I8
sg27
S'Cs'
p98
sg29
I352
sS'y'
F3.096473
sS'x'
F7002.6916950000004
sS'z'
F2.3722430000000001
sg30
g2
(g31
g4
NtRp99
(dp100
g34
I0
sg35
g36
sg22
I352
sg37
S'Cesium Ion Cs+'
p101
sg39
F6.2000000000000002
sg27
I55
sg40
F0.01
sg41
F1
sg42
F132.905
sg43
I72
sg44
S'Cs'
p102
sbsg46
(lp103
sbag2
(g19
g4
NtRp104
(dp105
g22
I9
sg23
F4.5581906201986429e-06
sg24
F-3.0000578223471814e-06
sg25
F-5.3420001935470554e-06
sg26
I9
sg27
S'Cs'
p106
sg29
I352
sS'y'
F3.19435
sS'x'
F8002.7254819999998
sS'z'
F2.3307920000000002
sg30
g2
(g31
g4
NtRp107
(dp108
g34
I0
sg35
g36
sg22
I352
sg37
S'Cesium Ion Cs+'
p109
sg39
F6.2000000000000002
sg27
I55
sg40
F0.01
sg41
F1
sg42
F132.905
sg43
I72
sg44
S'Cs'
p110
sbsg46
(lp111
sbag2
(g19
g4
NtRp112
(dp113
g22
I10
sg23
F6.2017005576584034e-06
sg24
F4.9566172717040381e-07
sg25
F2.0822535715579645e-06
sg26
I10
sg27
S'Cs'
p114
sg29
I352
sS'y'
F3.0313469999999998
sS'x'
F9002.5593559999998
sS'z'
F2.2474400000000001
sg30
g2
(g31
g4
NtRp115
(dp116
g34
I0
sg35
g36
sg22
I352
sg37
S'Cesium Ion Cs+'
p117
sg39
F6.2000000000000002
sg27
I55
sg40
F0.01
sg41
F1
sg42
F132.905
sg43
I72
sg44
S'Cs'
p118
sbsg46
(lp119
sbag2
(g19
g4
NtRp120
(dp121
g22
I11
sg23
F6.2017005576584034e-06
sg24
F4.9566172717040381e-07
sg25
F2.0822535715579645e-06
sg26
I11
sg27
S'Cs'
p122
sg29
I352
sS'y'
F3.0313469999999998
sS'x'
F10002.559356
sS'z'
F2.2474400000000001
sg30
g2
(g31
g4
NtRp123
(dp124
g34
I0
sg35
g36
sg22
I352
sg37
S'Cesium Ion Cs+'
p125
sg39
F6.2000000000000002
sg27
I55
sg40
F0.01
sg41
F1
sg42
F132.905
sg43
I72
sg44
S'Cs'
p126
sbsg46
(lp127
sbag2
(g19
g4
NtRp128
(dp129
g22
I12
sg23
F5.5945742315549404e-06
sg24
F2.9158664763445529e-06
sg25
F5.9657276301299077e-06
sg26
I12
sg27
S'Cs'
p130
sg29
I352
sS'y'
F3.0603289999999999
sS'x'
F11002.839478
sS'z'
F2.3665910000000001
sg30
g2
(g31
g4
NtRp131
(dp132
g34
I0
sg35
g36
sg22
I352
sg37
S'Cesium Ion Cs+'
p133
sg39
F6.2000000000000002
sg27
I55
sg40
F0.01
sg41
F1
sg42
F132.905
sg43
I72
sg44
S'Cs'
p134
sbsg46
(lp135
sbag2
(g19
g4
NtRp136
(dp137
g22
I13
sg23
F-0.523020703492174
sg24
F-0.60408069467546732
sg25
F-0.44329702699747442
sg26
I13
sg27
S'Pb'
p138
sg29
I907
sS'y'
F0.42779699999999998
sS'x'
F12000.408418999999
sS'z'
F0.43427300000000002
sg30
g2
(g31
g4
NtRp139
(dp140
g22
I907
sg39
F3
sg27
I82
sg40
F10.1
sg41
F0.40000000000000002
sg42
F207.19999999999999
sg43
I111
sg44
S'Pb'
p141
sbsg46
(lp142
sbag2
(g19
g4
NtRp143
(dp144
g22
I14
sg23
F0.23282398027522491
sg24
F-0.10194837283200227
sg25
F-0.093688161848152249
sg26
I13
sg27
S'Cl'
p145
sg29
I344
sS'y'
F0.343918
sS'x'
F12002.962167
sS'z'
F0.064477999999999994
sg30
g2
(g31
g4
NtRp146
(dp147
g34
I0
sg35
g36
sg22
I344
sg37
S'Chloride Ion Cl-'
p148
sg39
F4.0199999999999996
sg27
I17
sg40
F0.70999999999999996
sg41
F-1
sg42
F35.453000000000003
sg43
I21
sg44
S'Cl'
p149
sbsg46
(lp150
sbag2
(g19
g4
NtRp151
(dp152
g22
I15
sg23
F-0.097982624855688052
sg24
F0.21915451207030778
sg25
F-0.10435553503730764
sg26
I13
sg27
S'Cl'
p153
sg29
I344
sS'y'
F2.9169700000000001
sS'x'
F11999.954147
sS'z'
F-0.07954
sg30
g146
sg46
(lp154
sbag2
(g19
g4
NtRp155
(dp156
g22
I16
sg23
F-0.073766995283987224
sg24
F-0.067386468750038411
sg25
F0.24929670250934324
sg26
I13
sg27
S'Cl'
p157
sg29
I344
sS'y'
F0.47215800000000002
sS'x'
F12000.322410000001
sS'z'
F3.01416
sg30
g146
sg46
(lp158
sbag2
(g19
g4
NtRp159
(dp160
g22
I17
sg23
F6.1306790967140659
sg24
F11.975518781465615
sg25
F2.1666948200056066
sg26
I14
sg27
S'Pb'
p161
sg29
I907
sS'y'
F0.330785
sS'x'
F13000.747111000001
sS'z'
F0.74954500000000002
sg30
g139
sg46
(lp162
sbag2
(g19
g4
NtRp163
(dp164
g22
I18
sg23
F-8.1280888049498685
sg24
F-3.6892972109187046
sg25
F-4.9254815510487626
sg26
I14
sg27
S'Cl'
p165
sg29
I344
sS'y'
F1.007253
sS'x'
F13002.534351
sS'z'
F2.5807380000000002
sg30
g2
(g31
g4
NtRp166
(dp167
g34
I0
sg35
g36
sg22
I344
sg37
S'Chloride Ion Cl-'
p168
sg39
F4.0199999999999996
sg27
I17
sg40
F0.70999999999999996
sg41
F-1
sg42
F35.453000000000003
sg43
I21
sg44
S'Cl'
p169
sbsg46
(lp170
sbag2
(g19
g4
NtRp171
(dp172
g22
I19
sg23
F-4.7688491618004205
sg24
F-6.0059024052387624
sg25
F4.2536847761320686
sg26
I14
sg27
S'Cl'
p173
sg29
I344
sS'y'
F1.992192
sS'x'
F13001.670843
sS'z'
F-1.064694
sg30
g166
sg46
(lp174
sbag2
(g19
g4
NtRp175
(dp176
g22
I20
sg23
F6.7136240128776992
sg24
F-3.0032261786701877
sg25
F-1.6795902443248174
sg26
I14
sg27
S'Cl'
p177
sg29
I344
sS'y'
F1.5131509999999999
sS'x'
F12998.517934
sS'z'
F1.512116
sg30
g166
sg46
(lp178
sbag2
(g19
g4
NtRp179
(dp180
g22
I21
sg23
F9.2460499376223062
sg24
F-20.572652134170013
sg25
F14.990540881558521
sg26
I15
sg27
S'Pb'
p181
sg29
I907
sS'y'
F0.76062700000000005
sS'x'
F14001.361951999999
sS'z'
F0.77932400000000002
sg30
g139
sg46
(lp182
sbag2
(g19
g4
NtRp183
(dp184
g22
I22
sg23
F-6.347748925521719
sg24
F-1.2066595971646694
sg25
F-3.0006003620529644
sg26
I15
sg27
S'Cl'
p185
sg29
I344
sS'y'
F-0.26606200000000002
sS'x'
F13999.109597000001
sS'z'
F0.165377
sg30
g2
(g31
g4
NtRp186
(dp187
g34
I0
sg35
g36
sg22
I344
sg37
S'Chloride Ion Cl-'
p188
sg39
F4.0199999999999996
sg27
I17
sg40
F0.70999999999999996
sg41
F-1
sg42
F35.453000000000003
sg43
I21
sg44
S'Cl'
p189
sbsg46
(lp190
sbag2
(g19
g4
NtRp191
(dp192
g22
I23
sg23
F1.1272197368121064
sg24
F0.44660327332991628
sg25
F-3.9692697738366958
sg26
I15
sg27
S'Cl'
p193
sg29
I344
sS'y'
F1.1891510000000001
sS'x'
F14000.895595
sS'z'
F3.3288319999999998
sg30
g186
sg46
(lp194
sbag2
(g19
g4
NtRp195
(dp196
g22
I24
sg23
F-3.3165250594051772
sg24
F20.77197638617135
sg25
F-8.154678845107485
sg26
I15
sg27
S'Cl'
p197
sg29
I344
sS'y'
F3.0483440000000002
sS'x'
F14001.211278999999
sS'z'
F-0.14433299999999999
sg30
g186
sg46
(lp198
sbag2
(g19
g4
NtRp199
(dp200
g22
I25
sg23
F-11.908308023612065
sg24
F1.5137578789442598
sg25
F20.366831412293347
sg26
I16
sg27
S'Pb'
p201
sg29
I907
sS'y'
F1.4470609999999999
sS'x'
F15001.087774
sS'z'
F0.63206200000000001
sg30
g139
sg46
(lp202
sbag2
(g19
g4
NtRp203
(dp204
g22
I26
sg23
F6.733541235492333
sg24
F-7.9645005112794722
sg25
F-5.0382708604941877
sg26
I16
sg27
S'Cl'
p205
sg29
I344
sS'y'
F-0.29819000000000001
sS'x'
F15002.701021000001
sS'z'
F-0.173375
sg30
g2
(g31
g4
NtRp206
(dp207
g34
I0
sg35
g36
sg22
I344
sg37
S'Chloride Ion Cl-'
p208
sg39
F4.0199999999999996
sg27
I17
sg40
F0.70999999999999996
sg41
F-1
sg42
F35.453000000000003
sg43
I21
sg44
S'Cl'
p209
sbsg46
(lp210
sbag2
(g19
g4
NtRp211
(dp212
g22
I27
sg23
F3.6271422003107054
sg24
F6.6559328985823756
sg25
F-12.69368365204541
sg26
I16
sg27
S'Cl'
p213
sg29
I344
sS'y'
F0.54622099999999996
sS'x'
F15000.751194
sS'z'
F3.1597529999999998
sg30
g206
sg46
(lp214
sbag2
(g19
g4
NtRp215
(dp216
g22
I28
sg23
F1.6973003077984388
sg24
F0.65262246741133023
sg25
F-2.7444211249151249
sg26
I16
sg27
S'Cl'
p217
sg29
I344
sS'y'
F0.54670200000000002
sS'x'
F14998.812862999999
sS'z'
F-0.18879499999999999
sg30
g206
sg46
(lp218
sbag2
(g19
g4
NtRp219
(dp220
g22
I29
sg23
F11.143577846848816
sg24
F-22.972860288448743
sg25
F-5.1402216393014166
sg26
I17
sg27
S'Pb'
p221
sg29
I907
sS'y'
F0.84802699999999998
sS'x'
F16001.216509
sS'z'
F1.1881029999999999
sg30
g139
sg46
(lp222
sbag2
(g19
g4
NtRp223
(dp224
g22
I30
sg23
F0.61362892653173295
sg24
F10.438174674408641
sg25
F-5.8486826260130904
sg26
I17
sg27
S'Cl'
p225
sg29
I344
sS'y'
F3.0687549999999999
sS'x'
F16001.770612
sS'z'
F0.127558
sg30
g2
(g31
g4
NtRp226
(dp227
g34
I0
sg35
g36
sg22
I344
sg37
S'Chloride Ion Cl-'
p228
sg39
F4.0199999999999996
sg27
I17
sg40
F0.70999999999999996
sg41
F-1
sg42
F35.453000000000003
sg43
I21
sg44
S'Cl'
p229
sbsg46
(lp230
sbag2
(g19
g4
NtRp231
(dp232
g22
I31
sg23
F2.2998444783929308
sg24
F8.5978035881519901
sg25
F8.6074009581094817
sg26
I17
sg27
S'Cl'
p233
sg29
I344
sS'y'
F-0.85550800000000005
sS'x'
F16000.946297
sS'z'
F-0.89955200000000002
sg30
g226
sg46
(lp234
sbag2
(g19
g4
NtRp235
(dp236
g22
I32
sg23
F-13.45694094389891
sg24
F3.6190114317426443
sg25
F3.0013947987086071
sg26
I17
sg27
S'Cl'
p237
sg29
I344
sS'y'
F1.0564169999999999
sS'x'
F15998.785162
sS'z'
F1.7401420000000001
sg30
g226
sg46
(lp238
sbag2
(g19
g4
NtRp239
(dp240
g22
I33
sg23
F18.158211125729
sg24
F22.182330385179153
sg25
F15.250883486291826
sg26
I18
sg27
S'Pb'
p241
sg29
I907
sS'y'
F0.28872999999999999
sS'x'
F17000.296160000002
sS'z'
F0.34003299999999997
sg30
g139
sg46
(lp242
sbag2
(g19
g4
NtRp243
(dp244
g22
I34
sg23
F-10.948908581799712
sg24
F-5.3132693121274119
sg25
F-2.7882859936755451
sg26
I18
sg27
S'Cl'
p245
sg29
I344
sS'y'
F0.429641
sS'x'
F17002.919739000001
sS'z'
F0.132078
sg30
g2
(g31
g4
NtRp246
(dp247
g34
I0
sg35
g36
sg22
I344
sg37
S'Chloride Ion Cl-'
p248
sg39
F4.0199999999999996
sg27
I17
sg40
F0.70999999999999996
sg41
F-1
sg42
F35.453000000000003
sg43
I21
sg44
S'Cl'
p249
sbsg46
(lp250
sbag2
(g19
g4
NtRp251
(dp252
g22
I35
sg23
F-3.4663680592985409
sg24
F-11.650604975286496
sg25
F-2.552330422608057
sg26
I18
sg27
S'Cl'
p253
sg29
I344
sS'y'
F2.8890069999999999
sS'x'
F17000.04234
sS'z'
F0.00091600000000000004
sg30
g246
sg46
(lp254
sbag2
(g19
g4
NtRp255
(dp256
g22
I36
sg23
F-4.215349867709631
sg24
F-5.6564744412045407
sg25
F-10.280724563075621
sg26
I18
sg27
S'Cl'
p257
sg29
I344
sS'y'
F0.55346499999999998
sS'x'
F17000.388905
sS'z'
F2.9603440000000001
sg30
g246
sg46
(lp258
sbag2
(g19
g4
NtRp259
(dp260
g22
I37
sg23
F21.293497814917082
sg24
F-30.460910011599232
sg25
F18.916669668570901
sg26
I19
sg27
S'Pb'
p261
sg29
I907
sS'y'
F0.93635400000000002
sS'x'
F18000.163902
sS'z'
F0.67796000000000001
sg30
g139
sg46
(lp262
sbag2
(g19
g4
NtRp263
(dp264
g22
I38
sg23
F-17.865119440391183
sg24
F12.269438947593494
sg25
F1.988304870696155
sg26
I19
sg27
S'Cl'
p265
sg29
I344
sS'y'
F-1.076973
sS'x'
F18001.925547999999
sS'z'
F-0.013798
sg30
g2
(g31
g4
NtRp266
(dp267
g34
I0
sg35
g36
sg22
I344
sg37
S'Chloride Ion Cl-'
p268
sg39
F4.0199999999999996
sg27
I17
sg40
F0.70999999999999996
sg41
F-1
sg42
F35.453000000000003
sg43
I21
sg44
S'Cl'
p269
sbsg46
(lp270
sbag2
(g19
g4
NtRp271
(dp272
g22
I39
sg23
F6.7352243580509832
sg24
F15.421759012904605
sg25
F-7.4725445302362292
sg26
I19
sg27
S'Cl'
p273
sg29
I344
sS'y'
F2.64229
sS'x'
F18001.641617000001
sS'z'
F-0.29861799999999999
sg30
g266
sg46
(lp274
sbag2
(g19
g4
NtRp275
(dp276
g22
I40
sg23
F-11.003184788379743
sg24
F2.6329586390662727
sg25
F-13.496516897980076
sg26
I19
sg27
S'Cl'
p277
sg29
I344
sS'y'
F0.95920300000000003
sS'x'
F18001.208371000001
sS'z'
F3.1697959999999998
sg30
g266
sg46
(lp278
sbag2
(g19
g4
NtRp279
(dp280
g22
I41
sg23
F-0.72319985102192941
sg24
F19.091159951810095
sg25
F-38.892213037302291
sg26
I20
sg27
S'Pb'
p281
sg29
I907
sS'y'
F0.39965200000000001
sS'x'
F19000.741736
sS'z'
F1.2871269999999999
sg30
g139
sg46
(lp282
sbag2
(g19
g4
NtRp283
(dp284
g22
I42
sg23
F-8.4017351577958124
sg24
F-2.8564598127786383
sg25
F23.745270084373253
sg26
I20
sg27
S'Cl'
p285
sg29
I344
sS'y'
F0.135687
sS'x'
F19001.976804999998
sS'z'
F-1.224275
sg30
g2
(g31
g4
NtRp286
(dp287
g34
I0
sg35
g36
sg22
I344
sg37
S'Chloride Ion Cl-'
p288
sg39
F4.0199999999999996
sg27
I17
sg40
F0.70999999999999996
sg41
F-1
sg42
F35.453000000000003
sg43
I21
sg44
S'Cl'
p289
sbsg46
(lp290
sbag2
(g19
g4
NtRp291
(dp292
g22
I43
sg23
F9.453738190750208
sg24
F-11.682249527092727
sg25
F11.706128175465981
sg26
I20
sg27
S'Cl'
p293
sg29
I344
sS'y'
F1.715163
sS'x'
F18998.706965000001
sS'z'
F0.124774
sg30
g286
sg46
(lp294
sbag2
(g19
g4
NtRp295
(dp296
g22
I44
sg23
F-0.35034824422205973
sg24
F-5.2381203016692677
sg25
F3.7550634267012715
sg26
I20
sg27
S'Cl'
p297
sg29
I344
sS'y'
F2.574249
sS'x'
F19001.952286
sS'z'
F1.894733
sg30
g286
sg46
(lp298
sbag2
(g19
g4
NtRp299
(dp300
g22
I45
sg23
F11.69537695243938
sg24
F-38.459701177859166
sg25
F18.039687389554167
sg26
I21
sg27
S'Pb'
p301
sg29
I907
sS'y'
F1.331609
sS'x'
F20000.448374
sS'z'
F0.37651000000000001
sg30
g139
sg46
(lp302
sbag2
(g19
g4
NtRp303
(dp304
g22
I46
sg23
F-3.4360956497489048
sg24
F6.2499167707598282
sg25
F-3.8156778850874171
sg26
I21
sg27
S'Cl'
p305
sg29
I344
sS'y'
F1.2871109999999999
sS'x'
F20003.006259000002
sS'z'
F0.394839
sg30
g2
(g31
g4
NtRp306
(dp307
g34
I0
sg35
g36
sg22
I344
sg37
S'Chloride Ion Cl-'
p308
sg39
F4.0199999999999996
sg27
I17
sg40
F0.70999999999999996
sg41
F-1
sg42
F35.453000000000003
sg43
I21
sg44
S'Cl'
p309
sbsg46
(lp310
sbag2
(g19
g4
NtRp311
(dp312
g22
I47
sg23
F-3.4755948960275127
sg24
F6.0546132424979549
sg25
F-12.195665252575635
sg26
I21
sg27
S'Cl'
p313
sg29
I344
sS'y'
F1.139591
sS'x'
F20000.321217000001
sS'z'
F2.9960209999999998
sg30
g306
sg46
(lp314
sbag2
(g19
g4
NtRp315
(dp316
g22
I48
sg23
F-5.0492533014159573
sg24
F26.547317958706788
sg25
F-2.5666897570737066
sg26
I21
sg27
S'Cl'
p317
sg29
I344
sS'y'
F-1.5237529999999999
sS'x'
F20000.456152999999
sS'z'
F0.13875299999999999
sg30
g306
sg46
(lp318
sbag2
(g19
g4
NtRp319
(dp320
g22
I49
sg23
F-0.40720462029446486
sg24
F-0.54486640122040664
sg25
F-0.44008522438254988
sg26
I22
sg27
S'Pb'
p321
sg29
I907
sS'y'
F0.30095499999999997
sS'x'
F21000.304660999998
sS'z'
F0.345748
sg30
g139
sg46
(lp322
sbag2
(g19
g4
NtRp323
(dp324
g22
I50
sg23
F-0.01148112642263421
sg24
F-0.31355180813949129
sg25
F-0.32246813888385023
sg26
I22
sg27
S'Cl'
p325
sg29
I344
sS'y'
F0.438917
sS'x'
F21002.889561
sS'z'
F0.15013699999999999
sg30
g2
(g31
g4
NtRp326
(dp327
g34
I0
sg35
g36
sg22
I344
sg37
S'Chloride Ion Cl-'
p328
sg39
F4.0199999999999996
sg27
I17
sg40
F0.70999999999999996
sg41
F-1
sg42
F35.453000000000003
sg43
I21
sg44
S'Cl'
p329
sbsg46
(lp330
sbag2
(g19
g4
NtRp331
(dp332
g22
I51
sg23
F-0.28809793019617913
sg24
F-0.083282410302216003
sg25
F-0.25979690488755836
sg26
I22
sg27
S'Cl'
p333
sg29
I344
sS'y'
F2.8649830000000001
sS'x'
F21000.060204000001
sS'z'
F0.020178999999999999
sg30
g326
sg46
(lp334
sbag2
(g19
g4
NtRp335
(dp336
g22
I52
sg23
F-0.20230093901750731
sg24
F-0.27325730463606601
sg25
F-0.024023293848861035
sg26
I22
sg27
S'Cl'
p337
sg29
I344
sS'y'
F0.56421299999999996
sS'x'
F21000.404871999999
sS'z'
F2.9263690000000002
sg30
g326
sg46
(lp338
sbag2
(g19
g4
NtRp339
(dp340
g22
I53
sg23
F-0.41638267110291227
sg24
F-0.54170494265880431
sg25
F-0.4437051475117062
sg26
I22
sg27
S'Cs'
p341
sg29
I352
sS'y'
F3.0231240000000001
sS'x'
F21002.547201000001
sS'z'
F2.2383769999999998
sg30
g2
(g31
g4
NtRp342
(dp343
g34
I0
sg35
g36
sg22
I352
sg37
S'Cesium Ion Cs+'
p344
sg39
F6.2000000000000002
sg27
I55
sg40
F0.01
sg41
F1
sg42
F132.905
sg43
I72
sg44
S'Cs'
p345
sbsg46
(lp346
sbag2
(g19
g4
NtRp347
(dp348
g22
I54
sg23
F5.5779668838011842
sg24
F6.8517854848574835
sg25
F4.5548398911906709
sg26
I23
sg27
S'Pb'
p349
sg29
I907
sS'y'
F0.28872999999999999
sS'x'
F22000.296160000002
sS'z'
F0.34003299999999997
sg30
g139
sg46
(lp350
sbag2
(g19
g4
NtRp351
(dp352
g22
I55
sg23
F-6.6401820863095962
sg24
F0.12342022185279433
sg25
F0.99231056229888037
sg26
I23
sg27
S'Cl'
p353
sg29
I344
sS'y'
F0.429641
sS'x'
F22002.919739000001
sS'z'
F0.132078
sg30
g2
(g31
g4
NtRp354
(dp355
g34
I0
sg35
g36
sg22
I344
sg37
S'Chloride Ion Cl-'
p356
sg39
F4.0199999999999996
sg27
I17
sg40
F0.70999999999999996
sg41
F-1
sg42
F35.453000000000003
sg43
I21
sg44
S'Cl'
p357
sbsg46
(lp358
sbag2
(g19
g4
NtRp359
(dp360
g22
I56
sg23
F1.1858196883869729
sg24
F-6.4760253777311485
sg25
F1.4430593143419224
sg26
I23
sg27
S'Cl'
p361
sg29
I344
sS'y'
F2.8890069999999999
sS'x'
F22000.04234
sS'z'
F0.00091600000000000004
sg30
g354
sg46
(lp362
sbag2
(g19
g4
NtRp363
(dp364
g22
I57
sg23
F0.38895605355649399
sg24
F-0.10259411096949358
sg25
F-6.7947380015444141
sg26
I23
sg27
S'Cl'
p365
sg29
I344
sS'y'
F0.55346499999999998
sS'x'
F22000.388905
sS'z'
F2.9603440000000001
sg30
g354
sg46
(lp366
sbag2
(g19
g4
NtRp367
(dp368
g22
I58
sg23
F-1.7568293974393778
sg24
F-1.9775373465648587
sg25
F-1.4669279463165892
sg26
I23
sg27
S'Cs'
p369
sg29
I352
sS'y'
F3.0313469999999998
sS'x'
F22002.559356000002
sS'z'
F2.2474400000000001
sg30
g2
(g31
g4
NtRp370
(dp371
g34
I0
sg35
g36
sg22
I352
sg37
S'Cesium Ion Cs+'
p372
sg39
F6.2000000000000002
sg27
I55
sg40
F0.01
sg41
F1
sg42
F132.905
sg43
I72
sg44
S'Cs'
p373
sbsg46
(lp374
sbag2
(g19
g4
NtRp375
(dp376
g22
I59
sg23
F8.2860310988916197
sg24
F-8.8114354503018966
sg25
F-23.513888805817334
sg26
I24
sg27
S'Pb'
p377
sg29
I907
sS'y'
F2.3809439999999999
sS'x'
F23000.451003999999
sS'z'
F2.6681319999999999
sg30
g139
sg46
(lp378
sbag2
(g19
g4
NtRp379
(dp380
g22
I60
sg23
F-3.2376616666850424
sg24
F2.5798239888756576
sg25
F16.537055656672955
sg26
I24
sg27
S'Cl'
p381
sg29
I344
sS'y'
F3.079904
sS'x'
F23000.445352999999
sS'z'
F0.020048
sg30
g2
(g31
g4
NtRp382
(dp383
g34
I0
sg35
g36
sg22
I344
sg37
S'Chloride Ion Cl-'
p384
sg39
F4.0199999999999996
sg27
I17
sg40
F0.70999999999999996
sg41
F-1
sg42
F35.453000000000003
sg43
I21
sg44
S'Cl'
p385
sbsg46
(lp386
sbag2
(g19
g4
NtRp387
(dp388
g22
I61
sg23
F-7.9166408805447945
sg24
F0.68993364464018436
sg25
F-0.25183478225768274
sg26
I24
sg27
S'Cl'
p389
sg29
I344
sS'y'
F2.2536909999999999
sS'x'
F23003.057209999999
sS'z'
F2.667862
sg30
g382
sg46
(lp390
sbag2
(g19
g4
NtRp391
(dp392
g22
I62
sg23
F-5.6220208961280571
sg24
F6.5645749824372972
sg25
F11.71589679655021
sg26
I24
sg27
S'Cl'
p393
sg29
I344
sS'y'
F-0.122519
sS'x'
F23000.333869999999
sS'z'
F1.734747
sg30
g382
sg46
(lp394
sbag2
(g19
g4
NtRp395
(dp396
g22
I63
sg23
F9.1199867513909592
sg24
F-1.5222774882083179
sg25
F-5.1381859115277715
sg26
I24
sg27
S'Cs'
p397
sg29
I352
sS'y'
F0.70491899999999996
sS'x'
F23002.526897
sS'z'
F-0.35931999999999997
sg30
g2
(g31
g4
NtRp398
(dp399
g34
I0
sg35
g36
sg22
I352
sg37
S'Cesium Ion Cs+'
p400
sg39
F6.2000000000000002
sg27
I55
sg40
F0.01
sg41
F1
sg42
F132.905
sg43
I72
sg44
S'Cs'
p401
sbsg46
(lp402
sbag2
(g19
g4
NtRp403
(dp404
g22
I64
sg23
F-7.7966995150706513
sg24
F40.844902371751338
sg25
F18.662897623283207
sg26
I25
sg27
S'Pb'
p405
sg29
I907
sS'y'
F2.8216290000000002
sS'x'
F24000.048062999998
sS'z'
F1.121469
sg30
g139
sg46
(lp406
sbag2
(g19
g4
NtRp407
(dp408
g22
I65
sg23
F9.0648719741030757
sg24
F-29.345355898836871
sg25
F-18.41018215211459
sg26
I25
sg27
S'Cl'
p409
sg29
I344
sS'y'
F0.90581699999999998
sS'x'
F24000.199256
sS'z'
F-0.35703600000000002
sg30
g2
(g31
g4
NtRp410
(dp411
g34
I0
sg35
g36
sg22
I344
sg37
S'Chloride Ion Cl-'
p412
sg39
F4.0199999999999996
sg27
I17
sg40
F0.70999999999999996
sg41
F-1
sg42
F35.453000000000003
sg43
I21
sg44
S'Cl'
p413
sbsg46
(lp414
sbag2
(g19
g4
NtRp415
(dp416
g22
I66
sg23
F-1.8051274445291181
sg24
F-4.6426225530517193
sg25
F-3.7240075680595432
sg26
I25
sg27
S'Cl'
p417
sg29
I344
sS'y'
F3.6711119999999999
sS'x'
F24002.553972000002
sS'z'
F1.0515890000000001
sg30
g410
sg46
(lp418
sbag2
(g19
g4
NtRp419
(dp420
g22
I67
sg23
F0.35801561294958023
sg24
F-6.7800556663869287
sg25
F4.5188867891488682
sg26
I25
sg27
S'Cl'
p421
sg29
I344
sS'y'
F1.607165
sS'x'
F24000.619137000002
sS'z'
F3.3114110000000001
sg30
g410
sg46
(lp422
sbag2
(g19
g4
NtRp423
(dp424
g22
I68
sg23
F0.25126596655139122
sg24
F1.2760466479516752
sg25
F-0.019689808745349802
sg26
I25
sg27
S'Cs'
p425
sg29
I352
sS'y'
F0.41497800000000001
sS'x'
F24003.128887999999
sS'z'
F1.5080009999999999
sg30
g2
(g31
g4
NtRp426
(dp427
g34
I0
sg35
g36
sg22
I352
sg37
S'Cesium Ion Cs+'
p428
sg39
F6.2000000000000002
sg27
I55
sg40
F0.01
sg41
F1
sg42
F132.905
sg43
I72
sg44
S'Cs'
p429
sbsg46
(lp430
sbag2
(g19
g4
NtRp431
(dp432
g22
I69
sg23
F33.059763235618966
sg24
F-18.960280134799575
sg25
F27.035918845835795
sg26
I26
sg27
S'Pb'
p433
sg29
I907
sS'y'
F1.6194809999999999
sS'x'
F25003.096613999998
sS'z'
F0.73890400000000001
sg30
g139
sg46
(lp434
sbag2
(g19
g4
NtRp435
(dp436
g22
I70
sg23
F-4.7539590210567155
sg24
F1.8618669974012863
sg25
F-0.07363342156327643
sg26
I26
sg27
S'Cl'
p437
sg29
I344
sS'y'
F3.2209210000000001
sS'x'
F25002.441461999999
sS'z'
F2.660148
sg30
g2
(g31
g4
NtRp438
(dp439
g34
I0
sg35
g36
sg22
I344
sg37
S'Chloride Ion Cl-'
p440
sg39
F4.0199999999999996
sg27
I17
sg40
F0.70999999999999996
sg41
F-1
sg42
F35.453000000000003
sg43
I21
sg44
S'Cl'
p441
sbsg46
(lp442
sbag2
(g19
g4
NtRp443
(dp444
g22
I71
sg23
F-32.73240172257956
sg24
F10.683579607047347
sg25
F-25.122664478165579
sg26
I26
sg27
S'Cl'
p445
sg29
I344
sS'y'
F2.1637659999999999
sS'x'
F25001.215141000001
sS'z'
F-0.65605000000000002
sg30
g438
sg46
(lp446
sbag2
(g19
g4
NtRp447
(dp448
g22
I72
sg23
F0.96746734197502937
sg24
F7.812244177125085
sg25
F-4.708140141117398
sg26
I26
sg27
S'Cl'
p449
sg29
I344
sS'y'
F-0.38455099999999998
sS'x'
F25001.787236
sS'z'
F1.9552130000000001
sg30
g438
sg46
(lp450
sbag2
(g19
g4
NtRp451
(dp452
g22
I73
sg23
F4.5336368295638572
sg24
F-1.786188460136388
sg25
F1.7930738940302506
sg26
I26
sg27
S'Cs'
p453
sg29
I352
sS'y'
F1.9345870000000001
sS'x'
F24999.297124000001
sS'z'
F2.0623019999999999
sg30
g2
(g31
g4
NtRp454
(dp455
g34
I0
sg35
g36
sg22
I352
sg37
S'Cesium Ion Cs+'
p456
sg39
F6.2000000000000002
sg27
I55
sg40
F0.01
sg41
F1
sg42
F132.905
sg43
I72
sg44
S'Cs'
p457
sbsg46
(lp458
sbag2
(g19
g4
NtRp459
(dp460
g22
I74
sg23
F-12.499338147781842
sg24
F10.527203504556791
sg25
F-16.983723773940401
sg26
I27
sg27
S'Pb'
p461
sg29
I907
sS'y'
F-0.139516
sS'x'
F26001.997351000002
sS'z'
F1.2975939999999999
sg30
g139
sg46
(lp462
sbag2
(g19
g4
NtRp463
(dp464
g22
I75
sg23
F0.89656481850092973
sg24
F-1.3868685052476826
sg25
F1.2681013303887791
sg26
I27
sg27
S'Cl'
p465
sg29
I344
sS'y'
F1.7609900000000001
sS'x'
F26003.724375999998
sS'z'
F1.5486279999999999
sg30
g2
(g31
g4
NtRp466
(dp467
g34
I0
sg35
g36
sg22
I344
sg37
S'Chloride Ion Cl-'
p468
sg39
F4.0199999999999996
sg27
I17
sg40
F0.70999999999999996
sg41
F-1
sg42
F35.453000000000003
sg43
I21
sg44
S'Cl'
p469
sbsg46
(lp470
sbag2
(g19
g4
NtRp471
(dp472
g22
I76
sg23
F11.361854948727512
sg24
F-7.2145503316350732
sg25
F22.871360597387049
sg26
I27
sg27
S'Cl'
p473
sg29
I344
sS'y'
F1.2401709999999999
sS'x'
F26000.716837
sS'z'
F-0.86828499999999997
sg30
g466
sg46
(lp474
sbag2
(g19
g4
NtRp475
(dp476
g22
I77
sg23
F3.4453843007127469
sg24
F-0.00019456857219928559
sg25
F-3.0348016437693652
sg26
I27
sg27
S'Cl'
p477
sg29
I344
sS'y'
F0.86047700000000005
sS'x'
F26000.377818000001
sS'z'
F3.0642749999999999
sg30
g466
sg46
(lp478
sbag2
(g19
g4
NtRp479
(dp480
g22
I78
sg23
F-2.5556583760782443
sg24
F-2.1531549566702024
sg25
F-2.9726722640901531
sg26
I27
sg27
S'Cs'
p481
sg29
I352
sS'y'
F3.7847300000000001
sS'x'
F26001.122274000001
sS'z'
F1.49007
sg30
g2
(g31
g4
NtRp482
(dp483
g34
I0
sg35
g36
sg22
I352
sg37
S'Cesium Ion Cs+'
p484
sg39
F6.2000000000000002
sg27
I55
sg40
F0.01
sg41
F1
sg42
F132.905
sg43
I72
sg44
S'Cs'
p485
sbsg46
(lp486
sbag2
(g19
g4
NtRp487
(dp488
g22
I79
sg23
F1.2750938248441233
sg24
F11.842058531716541
sg25
F3.0696505134612821
sg26
I28
sg27
S'Pb'
p489
sg29
I907
sS'y'
F0.33178999999999997
sS'x'
F27000.396798999998
sS'z'
F0.41040399999999999
sg30
g139
sg46
(lp490
sbag2
(g19
g4
NtRp491
(dp492
g22
I80
sg23
F0.50180711083234819
sg24
F4.001954453990491
sg25
F1.8746993688398035
sg26
I28
sg27
S'Cl'
p493
sg29
I344
sS'y'
F0.12513099999999999
sS'x'
F27002.924175
sS'z'
F0.95467900000000006
sg30
g2
(g31
g4
NtRp494
(dp495
g34
I0
sg35
g36
sg22
I344
sg37
S'Chloride Ion Cl-'
p496
sg39
F4.0199999999999996
sg27
I17
sg40
F0.70999999999999996
sg41
F-1
sg42
F35.453000000000003
sg43
I21
sg44
S'Cl'
p497
sbsg46
(lp498
sbag2
(g19
g4
NtRp499
(dp500
g22
I81
sg23
F3.2140796149374067
sg24
F-6.1368459811856697
sg25
F6.7773585171695636
sg26
I28
sg27
S'Cl'
p501
sg29
I344
sS'y'
F2.7863570000000002
sS'x'
F27000.647926000001
sS'z'
F-0.53377699999999995
sg30
g494
sg46
(lp502
sbag2
(g19
g4
NtRp503
(dp504
g22
I82
sg23
F4.6527091020027385
sg24
F0.76566683394657453
sg25
F-3.3332142802784377
sg26
I28
sg27
S'Cl'
p505
sg29
I344
sS'y'
F1.2509399999999999
sS'x'
F26999.852488
sS'z'
F2.8062939999999998
sg30
g494
sg46
(lp506
sbag2
(g19
g4
NtRp507
(dp508
g22
I83
sg23
F-10.431581937065227
sg24
F-12.474867967454191
sg25
F-8.6518401375437612
sg26
I28
sg27
S'Cs'
p509
sg29
I352
sS'y'
F3.4267080000000001
sS'x'
F27002.832554000001
sS'z'
F2.5579329999999998
sg30
g2
(g31
g4
NtRp510
(dp511
g34
I0
sg35
g36
sg22
I352
sg37
S'Cesium Ion Cs+'
p512
sg39
F6.2000000000000002
sg27
I55
sg40
F0.01
sg41
F1
sg42
F132.905
sg43
I72
sg44
S'Cs'
p513
sbsg46
(lp514
sbag2
(g19
g4
NtRp515
(dp516
g22
I84
sg23
F13.772902768448917
sg24
F-15.091257663064214
sg25
F-10.791558979518502
sg26
I29
sg27
S'Pb'
p517
sg29
I907
sS'y'
F1.8282529999999999
sS'x'
F27999.658575000001
sS'z'
F1.860403
sg30
g139
sg46
(lp518
sbag2
(g19
g4
NtRp519
(dp520
g22
I85
sg23
F-1.2666697383697634
sg24
F7.1884279198579932
sg25
F22.551968997641524
sg26
I29
sg27
S'Cl'
p521
sg29
I344
sS'y'
F0.956515
sS'x'
F28000.497383000002
sS'z'
F-0.66109300000000004
sg30
g2
(g31
g4
NtRp522
(dp523
g34
I0
sg35
g36
sg22
I344
sg37
S'Chloride Ion Cl-'
p524
sg39
F4.0199999999999996
sg27
I17
sg40
F0.70999999999999996
sg41
F-1
sg42
F35.453000000000003
sg43
I21
sg44
S'Cl'
p525
sbsg46
(lp526
sbag2
(g19
g4
NtRp527
(dp528
g22
I86
sg23
F2.7241838269614815
sg24
F-6.2950840274679898
sg25
F1.5399490181329294
sg26
I29
sg27
S'Cl'
p529
sg29
I344
sS'y'
F3.9855049999999999
sS'x'
F28001.057325000002
sS'z'
F1.6351070000000001
sg30
g522
sg46
(lp530
sbag2
(g19
g4
NtRp531
(dp532
g22
I87
sg23
F-7.8062234346006196
sg24
F15.217037603520149
sg25
F-14.088237182487401
sg26
I29
sg27
S'Cl'
p533
sg29
I344
sS'y'
F0.25709399999999999
sS'x'
F28001.455771000001
sS'z'
F3.2550279999999998
sg30
g522
sg46
(lp534
sbag2
(g19
g4
NtRp535
(dp536
g22
I88
sg23
F-5.0821111074361811
sg24
F-1.1913647486207295
sg25
F0.28226100465329085
sg26
I29
sg27
S'Cs'
p537
sg29
I352
sS'y'
F1.6391610000000001
sS'x'
F28003.560454999999
sS'z'
F0.83450000000000002
sg30
g2
(g31
g4
NtRp538
(dp539
g34
I0
sg35
g36
sg22
I352
sg37
S'Cesium Ion Cs+'
p540
sg39
F6.2000000000000002
sg27
I55
sg40
F0.01
sg41
F1
sg42
F132.905
sg43
I72
sg44
S'Cs'
p541
sbsg46
(lp542
sbag2
(g19
g4
NtRp543
(dp544
g22
I89
sg23
F-0.83968626334492424
sg24
F5.997060122561904
sg25
F12.872940933486618
sg26
I30
sg27
S'Pb'
p545
sg29
I907
sS'y'
F0.31957799999999997
sS'x'
F29000.464135999999
sS'z'
F0.32862799999999998
sg30
g139
sg46
(lp546
sbag2
(g19
g4
NtRp547
(dp548
g22
I90
sg23
F2.230116143162483
sg24
F-0.22880001694763391
sg25
F-0.4463909676569634
sg26
I30
sg27
S'Cl'
p549
sg29
I344
sS'y'
F0.64720999999999995
sS'x'
F29003.041740000001
sS'z'
F0.68039899999999998
sg30
g2
(g31
g4
NtRp550
(dp551
g34
I0
sg35
g36
sg22
I344
sg37
S'Chloride Ion Cl-'
p552
sg39
F4.0199999999999996
sg27
I17
sg40
F0.70999999999999996
sg41
F-1
sg42
F35.453000000000003
sg43
I21
sg44
S'Cl'
p553
sbsg46
(lp554
sbag2
(g19
g4
NtRp555
(dp556
g22
I91
sg23
F3.1329329457989199
sg24
F0.97163074870167931
sg25
F0.21204924152830262
sg26
I30
sg27
S'Cl'
p557
sg29
I344
sS'y'
F2.885157
sS'x'
F29000.145745000002
sS'z'
F0.12565000000000001
sg30
g550
sg46
(lp558
sbag2
(g19
g4
NtRp559
(dp560
g22
I92
sg23
F4.5806473739729867
sg24
F0.56577916041406107
sg25
F-8.5596594893360241
sg26
I30
sg27
S'Cl'
p561
sg29
I344
sS'y'
F0.47261900000000001
sS'x'
F28999.992027
sS'z'
F2.8985310000000002
sg30
g550
sg46
(lp562
sbag2
(g19
g4
NtRp563
(dp564
g22
I93
sg23
F-10.339664274163352
sg24
F-8.2602904865681044
sg25
F-5.442624251921754
sg26
I30
sg27
S'Cs'
p565
sg29
I352
sS'y'
F3.4302630000000001
sS'x'
F29002.920254000001
sS'z'
F2.476807
sg30
g2
(g31
g4
NtRp566
(dp567
g34
I0
sg35
g36
sg22
I352
sg37
S'Cesium Ion Cs+'
p568
sg39
F6.2000000000000002
sg27
I55
sg40
F0.01
sg41
F1
sg42
F132.905
sg43
I72
sg44
S'Cs'
p569
sbsg46
(lp570
sbag2
(g19
g4
NtRp571
(dp572
g22
I94
sg23
F1.9739271422000941
sg24
F-7.8234614822573612
sg25
F13.177298412243044
sg26
I31
sg27
S'Pb'
p573
sg29
I907
sS'y'
F0.44441900000000001
sS'x'
F30000.428797
sS'z'
F0.24921099999999999
sg30
g139
sg46
(lp574
sbag2
(g19
g4
NtRp575
(dp576
g22
I95
sg23
F-2.7930994097682533
sg24
F5.4144684946303832
sg25
F0.32155105678136692
sg26
I31
sg27
S'Cl'
p577
sg29
I344
sS'y'
F0.16037499999999999
sS'x'
F30002.976439999999
sS'z'
F0.82952099999999995
sg30
g2
(g31
g4
NtRp578
(dp579
g34
I0
sg35
g36
sg22
I344
sg37
S'Chloride Ion Cl-'
p580
sg39
F4.0199999999999996
sg27
I17
sg40
F0.70999999999999996
sg41
F-1
sg42
F35.453000000000003
sg43
I21
sg44
S'Cl'
p581
sbsg46
(lp582
sbag2
(g19
g4
NtRp583
(dp584
g22
I96
sg23
F0.60865290849084663
sg24
F9.8993154775071019
sg25
F-2.6522900499948632
sg26
I31
sg27
S'Cl'
p585
sg29
I344
sS'y'
F3.004149
sS'x'
F30000.621163
sS'z'
F0.18709999999999999
sg30
g578
sg46
(lp586
sbag2
(g19
g4
NtRp587
(dp588
g22
I97
sg23
F4.9287166011473253
sg24
F2.4782823373214327
sg25
F-8.783559752558519
sg26
I31
sg27
S'Cl'
p589
sg29
I344
sS'y'
F0.48762
sS'x'
F29999.746805999999
sS'z'
F2.77006
sg30
g578
sg46
(lp590
sbag2
(g19
g4
NtRp591
(dp592
g22
I98
sg23
F-3.5311490098462985
sg24
F-10.015780831321454
sg25
F-2.4152365858301064
sg26
I31
sg27
S'Cs'
p593
sg29
I352
sS'y'
F3.3918430000000002
sS'x'
F30002.889551
sS'z'
F2.4909460000000001
sg30
g2
(g31
g4
NtRp594
(dp595
g34
I0
sg35
g36
sg22
I352
sg37
S'Cesium Ion Cs+'
p596
sg39
F6.2000000000000002
sg27
I55
sg40
F0.01
sg41
F1
sg42
F132.905
sg43
I72
sg44
S'Cs'
p597
sbsg46
(lp598
sbag2
(g19
g4
NtRp599
(dp600
g22
I99
sg23
F6.320477586462169
sg24
F6.3336487343906525
sg25
F-4.5253940865056119
sg26
I32
sg27
S'Pb'
p601
sg29
I907
sS'y'
F0.335559
sS'x'
F31000.231077
sS'z'
F0.51522100000000004
sg30
g139
sg46
(lp602
sbag2
(g19
g4
NtRp603
(dp604
g22
I100
sg23
F-2.767028307280492
sg24
F0.99113971087843467
sg25
F2.6375689121132195
sg26
I32
sg27
S'Cl'
p605
sg29
I344
sS'y'
F0.57136600000000004
sS'x'
F31002.496834000001
sS'z'
F-0.67414200000000002
sg30
g2
(g31
g4
NtRp606
(dp607
g34
I0
sg35
g36
sg22
I344
sg37
S'Chloride Ion Cl-'
p608
sg39
F4.0199999999999996
sg27
I17
sg40
F0.70999999999999996
sg41
F-1
sg42
F35.453000000000003
sg43
I21
sg44
S'Cl'
p609
sbsg46
(lp610
sbag2
(g19
g4
NtRp611
(dp612
g22
I101
sg23
F2.1490831928165735
sg24
F-0.40466117838744065
sg25
F3.3151842422582627
sg26
I32
sg27
S'Cl'
p613
sg29
I344
sS'y'
F2.9227979999999998
sS'x'
F30999.873728999999
sS'z'
F0.48939500000000002
sg30
g606
sg46
(lp614
sbag2
(g19
g4
NtRp615
(dp616
g22
I102
sg23
F0.10003344896772773
sg24
F-1.50207813683585
sg25
F7.1817055242843555
sg26
I32
sg27
S'Cl'
p617
sg29
I344
sS'y'
F0.49817299999999998
sS'x'
F31001.450883000001
sS'z'
F2.8075049999999999
sg30
g606
sg46
(lp618
sbag2
(g19
g4
NtRp619
(dp620
g22
I103
sg23
F-6.4712450583237668
sg24
F-4.4199430299582474
sg25
F-8.3350264519111743
sg26
I32
sg27
S'Cs'
p621
sg29
I352
sS'y'
F3.4117630000000001
sS'x'
F31002.854131
sS'z'
F2.548635
sg30
g2
(g31
g4
NtRp622
(dp623
g34
I0
sg35
g36
sg22
I352
sg37
S'Cesium Ion Cs+'
p624
sg39
F6.2000000000000002
sg27
I55
sg40
F0.01
sg41
F1
sg42
F132.905
sg43
I72
sg44
S'Cs'
p625
sbsg46
(lp626
sbag2
(g19
g4
NtRp627
(dp628
g22
I104
sg23
F-1.7821575160418401
sg24
F21.663838385177584
sg25
F13.851017012342796
sg26
I33
sg27
S'Pb'
p629
sg29
I907
sS'y'
F0.30820500000000001
sS'x'
F32000.382267000001
sS'z'
F0.32866000000000001
sg30
g139
sg46
(lp630
sbag2
(g19
g4
NtRp631
(dp632
g22
I105
sg23
F3.6495996572606595
sg24
F2.1216406476904437
sg25
F1.6225654393144564
sg26
I33
sg27
S'Cl'
p633
sg29
I344
sS'y'
F0.25906800000000002
sS'x'
F32002.928204
sS'z'
F0.61481600000000003
sg30
g2
(g31
g4
NtRp634
(dp635
g34
I0
sg35
g36
sg22
I344
sg37
S'Chloride Ion Cl-'
p636
sg39
F4.0199999999999996
sg27
I17
sg40
F0.70999999999999996
sg41
F-1
sg42
F35.453000000000003
sg43
I21
sg44
S'Cl'
p637
sbsg46
(lp638
sbag2
(g19
g4
NtRp639
(dp640
g22
I106
sg23
F3.3783533791316396
sg24
F-12.369406104769698
sg25
F3.8814218672398764
sg26
I33
sg27
S'Cl'
p641
sg29
I344
sS'y'
F2.9907620000000001
sS'x'
F32000.448402000002
sS'z'
F-0.119149
sg30
g634
sg46
(lp642
sbag2
(g19
g4
NtRp643
(dp644
g22
I107
sg23
F5.8290468254233048
sg24
F-0.6542260315195958
sg25
F-12.203057724700521
sg26
I33
sg27
S'Cl'
p645
sg29
I344
sS'y'
F0.83071799999999996
sS'x'
F32000.005776000002
sS'z'
F2.9200080000000002
sg30
g634
sg46
(lp646
sbag2
(g19
g4
NtRp647
(dp648
g22
I108
sg23
F-10.60244546463251
sg24
F-11.040812661435831
sg25
F-7.9731998690672441
sg26
I33
sg27
S'Cs'
p649
sg29
I352
sS'y'
F3.3836439999999999
sS'x'
F32002.899718000001
sS'z'
F2.485147
sg30
g2
(g31
g4
NtRp650
(dp651
g34
I0
sg35
g36
sg22
I352
sg37
S'Cesium Ion Cs+'
p652
sg39
F6.2000000000000002
sg27
I55
sg40
F0.01
sg41
F1
sg42
F132.905
sg43
I72
sg44
S'Cs'
p653
sbsg46
(lp654
sbag2
(g19
g4
NtRp655
(dp656
g22
I109
sg23
F-11.084444757725665
sg24
F3.3713672915191464
sg25
F-1.5586900188678761
sg26
I34
sg27
S'Pb'
p657
sg29
I907
sS'y'
F0.25040899999999999
sS'x'
F33000.480533000002
sS'z'
F0.37751699999999999
sg30
g139
sg46
(lp658
sbag2
(g19
g4
NtRp659
(dp660
g22
I110
sg23
F12.083276440177352
sg24
F4.7352697944421793
sg25
F-1.4872465790394394
sg26
I34
sg27
S'Cl'
p661
sg29
I344
sS'y'
F1.3415189999999999
sS'x'
F33002.735536
sS'z'
F-0.12973100000000001
sg30
g2
(g31
g4
NtRp662
(dp663
g34
I0
sg35
g36
sg22
I344
sg37
S'Chloride Ion Cl-'
p664
sg39
F4.0199999999999996
sg27
I17
sg40
F0.70999999999999996
sg41
F-1
sg42
F35.453000000000003
sg43
I21
sg44
S'Cl'
p665
sbsg46
(lp666
sbag2
(g19
g4
NtRp667
(dp668
g22
I111
sg23
F3.7171454195947153
sg24
F-1.6011066921272137
sg25
F1.0866250200125651
sg26
I34
sg27
S'Cl'
p669
sg29
I344
sS'y'
F2.5906850000000001
sS'x'
F32999.376208000001
sS'z'
F0.57389400000000002
sg30
g662
sg46
(lp670
sbag2
(g19
g4
NtRp671
(dp672
g22
I112
sg23
F4.8568430407758916
sg24
F2.7479944665140694
sg25
F7.0973103628909913
sg26
I34
sg27
S'Cl'
p673
sg29
I344
sS'y'
F0.20222000000000001
sS'x'
F33000.960050000002
sS'z'
F2.8831699999999998
sg30
g662
sg46
(lp674
sbag2
(g19
g4
NtRp675
(dp676
g22
I113
sg23
F-10.740154782838308
sg24
F-10.689250414764015
sg25
F-6.5063232593132279
sg26
I34
sg27
S'Cs'
p677
sg29
I352
sS'y'
F3.4371369999999999
sS'x'
F33002.879940999999
sS'z'
F2.52901
sg30
g2
(g31
g4
NtRp678
(dp679
g34
I0
sg35
g36
sg22
I352
sg37
S'Cesium Ion Cs+'
p680
sg39
F6.2000000000000002
sg27
I55
sg40
F0.01
sg41
F1
sg42
F132.905
sg43
I72
sg44
S'Cs'
p681
sbsg46
(lp682
sbag2
(g19
g4
NtRp683
(dp684
g22
I114
sg23
F4.5040401860031887
sg24
F21.826202771464239
sg25
F-2.6072030845575358
sg26
I35
sg27
S'Pb'
p685
sg29
I907
sS'y'
F0.26555800000000002
sS'x'
F34000.312232999997
sS'z'
F0.53206600000000004
sg30
g139
sg46
(lp686
sbag2
(g19
g4
NtRp687
(dp688
g22
I115
sg23
F2.9869909234635408
sg24
F0.6693187947456698
sg25
F3.2227260377128299
sg26
I35
sg27
S'Cl'
p689
sg29
I344
sS'y'
F0.12706899999999999
sS'x'
F34002.853905000004
sS'z'
F0.84864300000000004
sg30
g2
(g31
g4
NtRp690
(dp691
g34
I0
sg35
g36
sg22
I344
sg37
S'Chloride Ion Cl-'
p692
sg39
F4.0199999999999996
sg27
I17
sg40
F0.70999999999999996
sg41
F-1
sg42
F35.453000000000003
sg43
I21
sg44
S'Cl'
p693
sbsg46
(lp694
sbag2
(g19
g4
NtRp695
(dp696
g22
I116
sg23
F-1.2521667284076758
sg24
F-11.118690247013479
sg25
F8.7811179307919147
sg26
I35
sg27
S'Cl'
p697
sg29
I344
sS'y'
F2.5343079999999998
sS'x'
F34000.643144000001
sS'z'
F-0.824847
sg30
g690
sg46
(lp698
sbag2
(g19
g4
NtRp699
(dp700
g22
I117
sg23
F-0.012233320366868226
sg24
F-2.9115308983153279
sg25
F-1.0594692910863943
sg26
I35
sg27
S'Cl'
p701
sg29
I344
sS'y'
F1.6837470000000001
sS'x'
F34000.089024000001
sS'z'
F2.7693490000000001
sg30
g690
sg46
(lp702
sbag2
(g19
g4
NtRp703
(dp704
g22
I118
sg23
F-7.7571864839413767
sg24
F-10.254676955902362
sg25
F-9.2660588754433704
sg26
I35
sg27
S'Cs'
p705
sg29
I352
sS'y'
F3.4574310000000001
sS'x'
F34002.908838000003
sS'z'
F2.5286019999999998
sg30
g2
(g31
g4
NtRp706
(dp707
g34
I0
sg35
g36
sg22
I352
sg37
S'Cesium Ion Cs+'
p708
sg39
F6.2000000000000002
sg27
I55
sg40
F0.01
sg41
F1
sg42
F132.905
sg43
I72
sg44
S'Cs'
p709
sbsg46
(lp710
sbag2
(g19
g4
NtRp711
(dp712
g22
I119
sg23
F-14.434137422402687
sg24
F17.206425846085082
sg25
F4.6920460949564893
sg26
I36
sg27
S'Pb'
p713
sg29
I907
sS'y'
F0.169989
sS'x'
F35000.602814999998
sS'z'
F0.44361600000000001
sg30
g139
sg46
(lp714
sbag2
(g19
g4
NtRp715
(dp716
g22
I120
sg23
F5.5286620315357862
sg24
F-11.11953080036824
sg25
F-11.533822636311269
sg26
I36
sg27
S'Cl'
p717
sg29
I344
sS'y'
F1.315844
sS'x'
F35002.969369999999
sS'z'
F0.390241
sg30
g2
(g31
g4
NtRp718
(dp719
g34
I0
sg35
g36
sg22
I344
sg37
S'Chloride Ion Cl-'
p720
sg39
F4.0199999999999996
sg27
I17
sg40
F0.70999999999999996
sg41
F-1
sg42
F35.453000000000003
sg43
I21
sg44
S'Cl'
p721
sbsg46
(lp722
sbag2
(g19
g4
NtRp723
(dp724
g22
I121
sg23
F8.7813920246122787
sg24
F-11.888776826619409
sg25
F3.027758708025623
sg26
I36
sg27
S'Cl'
p725
sg29
I344
sS'y'
F2.310149
sS'x'
F34999.369958000003
sS'z'
F-0.417852
sg30
g718
sg46
(lp726
sbag2
(g19
g4
NtRp727
(dp728
g22
I122
sg23
F8.4582793713299367
sg24
F-1.2511866498340973
sg25
F-6.3557095528658571
sg26
I36
sg27
S'Cl'
p729
sg29
I344
sS'y'
F0.94538999999999995
sS'x'
F35000.125333999997
sS'z'
F2.925138
sg30
g718
sg46
(lp730
sbag2
(g19
g4
NtRp731
(dp732
g22
I123
sg23
F-8.9451262420437896
sg24
F6.1674906682662183
sg25
F10.307352804760038
sg26
I36
sg27
S'Cs'
p733
sg29
I352
sS'y'
F3.4134570000000002
sS'x'
F35002.938615999999
sS'z'
F2.4992000000000001
sg30
g2
(g31
g4
NtRp734
(dp735
g34
I0
sg35
g36
sg22
I352
sg37
S'Cesium Ion Cs+'
p736
sg39
F6.2000000000000002
sg27
I55
sg40
F0.01
sg41
F1
sg42
F132.905
sg43
I72
sg44
S'Cs'
p737
sbsg46
(lp738
sbag2
(g19
g4
NtRp739
(dp740
g22
I124
sg23
F36.276100389324505
sg24
F-77.806687410778494
sg25
F-29.552593136552659
sg26
I37
sg27
S'Pb'
p741
sg29
I907
sS'y'
F0.055312
sS'x'
F36001.385297000001
sS'z'
F1.866619
sg30
g139
sg46
(lp742
sbag2
(g19
g4
NtRp743
(dp744
g22
I125
sg23
F-54.595924516107161
sg24
F56.723188794715675
sg25
F20.511432954247198
sg26
I37
sg27
S'Cl'
p745
sg29
I344
sS'y'
F1.592921
sS'x'
F35999.729636999997
sS'z'
F2.344643
sg30
g2
(g31
g4
NtRp746
(dp747
g34
I0
sg35
g36
sg22
I344
sg37
S'Chloride Ion Cl-'
p748
sg39
F4.0199999999999996
sg27
I17
sg40
F0.70999999999999996
sg41
F-1
sg42
F35.453000000000003
sg43
I21
sg44
S'Cl'
p749
sbsg46
(lp750
sbag2
(g19
g4
NtRp751
(dp752
g22
I126
sg23
F15.243958483651131
sg24
F18.810595005537898
sg25
F6.0304725657542742
sg26
I37
sg27
S'Cl'
p753
sg29
I344
sS'y'
F1.2808809999999999
sS'x'
F36003.496915000003
sS'z'
F2.3434409999999999
sg30
g746
sg46
(lp754
sbag2
(g19
g4
NtRp755
(dp756
g22
I127
sg23
F0.31617662394691121
sg24
F1.7410396935079193
sg25
F6.2536928474915348
sg26
I37
sg27
S'Cl'
p757
sg29
I344
sS'y'
F0.85267099999999996
sS'x'
F36001.429326999998
sS'z'
F-0.69567699999999999
sg30
g746
sg46
(lp758
sbag2
(g19
g4
NtRp759
(dp760
g22
I128
sg23
F2.3406225758020014
sg24
F-2.0759796964867032
sg25
F-3.1353337995822428
sg26
I37
sg27
S'Cs'
p761
sg29
I352
sS'y'
F3.8168669999999998
sS'x'
F36001.715400000001
sS'z'
F0.88011099999999998
sg30
g2
(g31
g4
NtRp762
(dp763
g34
I0
sg35
g36
sg22
I352
sg37
S'Cesium Ion Cs+'
p764
sg39
F6.2000000000000002
sg27
I55
sg40
F0.01
sg41
F1
sg42
F132.905
sg43
I72
sg44
S'Cs'
p765
sbsg46
(lp766
sbag2
(g19
g4
NtRp767
(dp768
g22
I129
sg23
F15.144176778665889
sg24
F0.68532041422398493
sg25
F-3.4373144392474471
sg26
I38
sg27
S'Pb'
p769
sg29
I907
sS'y'
F0.47050999999999998
sS'x'
F37000.274421000002
sS'z'
F0.38691599999999998
sg30
g139
sg46
(lp770
sbag2
(g19
g4
NtRp771
(dp772
g22
I130
sg23
F-10.652912098183061
sg24
F4.1229103334845201
sg25
F4.0784426475719604
sg26
I38
sg27
S'Cl'
p773
sg29
I344
sS'y'
F0.30150199999999999
sS'x'
F37002.902189
sS'z'
F-0.010168999999999999
sg30
g2
(g31
g4
NtRp774
(dp775
g34
I0
sg35
g36
sg22
I344
sg37
S'Chloride Ion Cl-'
p776
sg39
F4.0199999999999996
sg27
I17
sg40
F0.70999999999999996
sg41
F-1
sg42
F35.453000000000003
sg43
I21
sg44
S'Cl'
p777
sbsg46
(lp778
sbag2
(g19
g4
NtRp779
(dp780
g22
I131
sg23
F3.7245338706934841
sg24
F4.4367331002060819
sg25
F3.9345794056186696
sg26
I38
sg27
S'Cl'
p781
sg29
I344
sS'y'
F3.084387
sS'x'
F37000.387175999997
sS'z'
F0.51971900000000004
sg30
g774
sg46
(lp782
sbag2
(g19
g4
NtRp783
(dp784
g22
I132
sg23
F1.7299938659889589
sg24
F2.5996190688199383
sg25
F4.8180651637367378
sg26
I38
sg27
S'Cl'
p785
sg29
I344
sS'y'
F0.198439
sS'x'
F37000.489394999997
sS'z'
F2.902129
sg30
g774
sg46
(lp786
sbag2
(g19
g4
NtRp787
(dp788
g22
I133
sg23
F-10.110284896246894
sg24
F-11.749796142012386
sg25
F-9.1719172352897758
sg26
I38
sg27
S'Cs'
p789
sg29
I352
sS'y'
F3.717657
sS'x'
F37003.133398999998
sS'z'
F2.7462650000000002
sg30
g2
(g31
g4
NtRp790
(dp791
g34
I0
sg35
g36
sg22
I352
sg37
S'Cesium Ion Cs+'
p792
sg39
F6.2000000000000002
sg27
I55
sg40
F0.01
sg41
F1
sg42
F132.905
sg43
I72
sg44
S'Cs'
p793
sbsg46
(lp794
sbag2
(g19
g4
NtRp795
(dp796
g22
I134
sg23
F11.747713722429722
sg24
F-7.340421108624378
sg25
F9.3235727278241693
sg26
I39
sg27
S'Pb'
p797
sg29
I907
sS'y'
F0.43187799999999998
sS'x'
F38000.343067000002
sS'z'
F0.26408399999999999
sg30
g139
sg46
(lp798
sbag2
(g19
g4
NtRp799
(dp800
g22
I135
sg23
F-3.5972491711956813
sg24
F4.0111847271493319
sg25
F1.9055258700965294
sg26
I39
sg27
S'Cl'
p801
sg29
I344
sS'y'
F0.67793800000000004
sS'x'
F38002.972869999998
sS'z'
F0.171426
sg30
g2
(g31
g4
NtRp802
(dp803
g34
I0
sg35
g36
sg22
I344
sg37
S'Chloride Ion Cl-'
p804
sg39
F4.0199999999999996
sg27
I17
sg40
F0.70999999999999996
sg41
F-1
sg42
F35.453000000000003
sg43
I21
sg44
S'Cl'
p805
sbsg46
(lp806
sbag2
(g19
g4
NtRp807
(dp808
g22
I136
sg23
F2.0525849941997958
sg24
F14.48311100425164
sg25
F3.1135245650073848
sg26
I39
sg27
S'Cl'
p809
sg29
I344
sS'y'
F2.934059
sS'x'
F38000.074122999999
sS'z'
F0.53608199999999995
sg30
g802
sg46
(lp810
sbag2
(g19
g4
NtRp811
(dp812
g22
I137
sg23
F0.11996431769517435
sg24
F2.0761039581702292
sg25
F-4.1836947919851495
sg26
I39
sg27
S'Cl'
p813
sg29
I344
sS'y'
F0.101634
sS'x'
F38000.448434999998
sS'z'
F2.8402959999999999
sg30
g802
sg46
(lp814
sbag2
(g19
g4
NtRp815
(dp816
g22
I138
sg23
F-10.427211016457585
sg24
F-13.954936025923223
sg25
F-9.9529094827962687
sg26
I39
sg27
S'Cs'
p817
sg29
I352
sS'y'
F3.7086709999999998
sS'x'
F38003.132039999997
sS'z'
F2.7792690000000002
sg30
g2
(g31
g4
NtRp818
(dp819
g34
I0
sg35
g36
sg22
I352
sg37
S'Cesium Ion Cs+'
p820
sg39
F6.2000000000000002
sg27
I55
sg40
F0.01
sg41
F1
sg42
F132.905
sg43
I72
sg44
S'Cs'
p821
sbsg46
(lp822
sbag2
(g19
g4
NtRp823
(dp824
g22
I139
sg23
F-9.3793062368001756
sg24
F11.135644435839515
sg25
F-12.233246221565652
sg26
I40
sg27
S'Pb'
p825
sg29
I907
sS'y'
F0.23899400000000001
sS'x'
F39000.450075000001
sS'z'
F0.61251100000000003
sg30
g139
sg46
(lp826
sbag2
(g19
g4
NtRp827
(dp828
g22
I140
sg23
F9.4757293640095703
sg24
F3.3594810173668499
sg25
F3.2708978523300725
sg26
I40
sg27
S'Cl'
p829
sg29
I344
sS'y'
F0.69590600000000002
sS'x'
F39002.886319999998
sS'z'
F0.053134000000000001
sg30
g2
(g31
g4
NtRp830
(dp831
g34
I0
sg35
g36
sg22
I344
sg37
S'Chloride Ion Cl-'
p832
sg39
F4.0199999999999996
sg27
I17
sg40
F0.70999999999999996
sg41
F-1
sg42
F35.453000000000003
sg43
I21
sg44
S'Cl'
p833
sbsg46
(lp834
sbag2
(g19
g4
NtRp835
(dp836
g22
I141
sg23
F3.5182474046623211
sg24
F-10.004504812804587
sg25
F6.5686367595371795
sg26
I40
sg27
S'Cl'
p837
sg29
I344
sS'y'
F2.554627
sS'x'
F38999.719020999997
sS'z'
F-0.42646200000000001
sg30
g830
sg46
(lp838
sbag2
(g19
g4
NtRp839
(dp840
g22
I142
sg23
F5.9735209894280317
sg24
F7.4112668657869865
sg25
F10.279683317710482
sg26
I40
sg27
S'Cl'
p841
sg29
I344
sS'y'
F1.207544
sS'x'
F39000.6342
sS'z'
F2.9884529999999998
sg30
g830
sg46
(lp842
sbag2
(g19
g4
NtRp843
(dp844
g22
I143
sg23
F-9.5191186228126927
sg24
F-12.496713662810837
sg25
F-8.2526144236018695
sg26
I40
sg27
S'Cs'
p845
sg29
I352
sS'y'
F3.7543229999999999
sS'x'
F39003.153543
sS'z'
F2.801752
sg30
g2
(g31
g4
NtRp846
(dp847
g34
I0
sg35
g36
sg22
I352
sg37
S'Cesium Ion Cs+'
p848
sg39
F6.2000000000000002
sg27
I55
sg40
F0.01
sg41
F1
sg42
F132.905
sg43
I72
sg44
S'Cs'
p849
sbsg46
(lp850
sbag2
(g19
g4
NtRp851
(dp852
g22
I144
sg23
F11.85620853210801
sg24
F16.544116420823556
sg25
F-0.20456119325300615
sg26
I41
sg27
S'Pb'
p853
sg29
I907
sS'y'
F0.23650499999999999
sS'x'
F40000.346181000001
sS'z'
F0.54656800000000005
sg30
g139
sg46
(lp854
sbag2
(g19
g4
NtRp855
(dp856
g22
I145
sg23
F-8.0281979595211599
sg24
F1.6409866706451428
sg25
F6.1104571310717448
sg26
I41
sg27
S'Cl'
p857
sg29
I344
sS'y'
F0.48908099999999999
sS'x'
F40002.922981999996
sS'z'
F-0.0090220000000000005
sg30
g2
(g31
g4
NtRp858
(dp859
g34
I0
sg35
g36
sg22
I344
sg37
S'Chloride Ion Cl-'
p860
sg39
F4.0199999999999996
sg27
I17
sg40
F0.70999999999999996
sg41
F-1
sg42
F35.453000000000003
sg43
I21
sg44
S'Cl'
p861
sbsg46
(lp862
sbag2
(g19
g4
NtRp863
(dp864
g22
I146
sg23
F2.2512054267070392
sg24
F-7.2513980414331503
sg25
F4.3260903439904812
sg26
I41
sg27
S'Cl'
p865
sg29
I344
sS'y'
F2.6220599999999998
sS'x'
F39999.831117000002
sS'z'
F-0.35732999999999998
sg30
g858
sg46
(lp866
sbag2
(g19
g4
NtRp867
(dp868
g22
I147
sg23
F4.2671106894451425
sg24
F2.0977827483337017
sg25
F-2.1850364620552747
sg26
I41
sg27
S'Cl'
p869
sg29
I344
sS'y'
F1.166703
sS'x'
F40000.660293000001
sS'z'
F3.0201069999999999
sg30
g858
sg46
(lp870
sbag2
(g19
g4
NtRp871
(dp872
g22
I148
sg23
F-10.353089134491706
sg24
F-12.903240527354665
sg25
F-7.4040480815946976
sg26
I41
sg27
S'Cs'
p873
sg29
I352
sS'y'
F3.7441620000000002
sS'x'
F40003.189005
sS'z'
F2.7305060000000001
sg30
g2
(g31
g4
NtRp874
(dp875
g34
I0
sg35
g36
sg22
I352
sg37
S'Cesium Ion Cs+'
p876
sg39
F6.2000000000000002
sg27
I55
sg40
F0.01
sg41
F1
sg42
F132.905
sg43
I72
sg44
S'Cs'
p877
sbsg46
(lp878
sbag2
(g19
g4
NtRp879
(dp880
g22
I149
sg23
F-0.026534393235290676
sg24
F1.917052341266644
sg25
F3.2072080738014286
sg26
I42
sg27
S'Pb'
p881
sg29
I907
sS'y'
F0.36132999999999998
sS'x'
F41000.343781000003
sS'z'
F0.399011
sg30
g139
sg46
(lp882
sbag2
(g19
g4
NtRp883
(dp884
g22
I150
sg23
F4.0608023716094142
sg24
F2.0418396313651948
sg25
F1.3470850171270341
sg26
I42
sg27
S'Cl'
p885
sg29
I344
sS'y'
F-0.284858
sS'x'
F41002.751704000002
sS'z'
F0.95915300000000003
sg30
g2
(g31
g4
NtRp886
(dp887
g34
I0
sg35
g36
sg22
I344
sg37
S'Chloride Ion Cl-'
p888
sg39
F4.0199999999999996
sg27
I17
sg40
F0.70999999999999996
sg41
F-1
sg42
F35.453000000000003
sg43
I21
sg44
S'Cl'
p889
sbsg46
(lp890
sbag2
(g19
g4
NtRp891
(dp892
g22
I151
sg23
F3.99975667091952
sg24
F4.7201141035210394
sg25
F1.7225309257074688
sg26
I42
sg27
S'Cl'
p893
sg29
I344
sS'y'
F2.695729
sS'x'
F41000.980958
sS'z'
F-0.49645099999999998
sg30
g886
sg46
(lp894
sbag2
(g19
g4
NtRp895
(dp896
g22
I152
sg23
F3.2200403491906631
sg24
F3.8631134167390258
sg25
F2.3704066020256183
sg26
I42
sg27
S'Cl'
p897
sg29
I344
sS'y'
F1.344511
sS'x'
F40999.966464999998
sS'z'
F2.7764880000000001
sg30
g886
sg46
(lp898
sbag2
(g19
g4
NtRp899
(dp900
g22
I153
sg23
F-12.103414878518089
sg24
F-13.773873549214835
sg25
F-9.8034531488534302
sg26
I42
sg27
S'Cs'
p901
sg29
I352
sS'y'
F3.7582840000000002
sS'x'
F41003.146038999999
sS'z'
F2.7892960000000002
sg30
g2
(g31
g4
NtRp902
(dp903
g34
I0
sg35
g36
sg22
I352
sg37
S'Cesium Ion Cs+'
p904
sg39
F6.2000000000000002
sg27
I55
sg40
F0.01
sg41
F1
sg42
F132.905
sg43
I72
sg44
S'Cs'
p905
sbsg46
(lp906
sbag2
(g19
g4
NtRp907
(dp908
g22
I154
sg23
F-4.8334924666122259
sg24
F12.380677016073506
sg25
F-13.738703943696867
sg26
I43
sg27
S'Pb'
p909
sg29
I907
sS'y'
F0.297124
sS'x'
F42000.355812000002
sS'z'
F0.54415899999999995
sg30
g139
sg46
(lp910
sbag2
(g19
g4
NtRp911
(dp912
g22
I155
sg23
F0.19196583468300971
sg24
F0.69265173734421348
sg25
F2.1343325357889098
sg26
I43
sg27
S'Cl'
p913
sg29
I344
sS'y'
F0.848943
sS'x'
F42002.521366000001
sS'z'
F-0.72958900000000004
sg30
g2
(g31
g4
NtRp914
(dp915
g34
I0
sg35
g36
sg22
I344
sg37
S'Chloride Ion Cl-'
p916
sg39
F4.0199999999999996
sg27
I17
sg40
F0.70999999999999996
sg41
F-1
sg42
F35.453000000000003
sg43
I21
sg44
S'Cl'
p917
sbsg46
(lp918
sbag2
(g19
g4
NtRp919
(dp920
g22
I156
sg23
F5.1664267246086828
sg24
F-5.071240266293815
sg25
F2.5599348173945615
sg26
I43
sg27
S'Cl'
p921
sg29
I344
sS'y'
F2.869202
sS'x'
F41999.711130999996
sS'z'
F0.76156100000000004
sg30
g914
sg46
(lp922
sbag2
(g19
g4
NtRp923
(dp924
g22
I157
sg23
F10.65560035513418
sg24
F3.9773983273423021
sg25
F17.367562675115266
sg26
I43
sg27
S'Cl'
p925
sg29
I344
sS'y'
F0.35097099999999998
sS'x'
F42001.514829
sS'z'
F2.7698900000000002
sg30
g914
sg46
(lp926
sbag2
(g19
g4
NtRp927
(dp928
g22
I158
sg23
F-12.324914878482479
sg24
F-13.241237987681073
sg25
F-9.585225423420475
sg26
I43
sg27
S'Cs'
p929
sg29
I352
sS'y'
F3.7471839999999998
sS'x'
F42003.203817000001
sS'z'
F2.7579560000000001
sg30
g2
(g31
g4
NtRp930
(dp931
g34
I0
sg35
g36
sg22
I352
sg37
S'Cesium Ion Cs+'
p932
sg39
F6.2000000000000002
sg27
I55
sg40
F0.01
sg41
F1
sg42
F132.905
sg43
I72
sg44
S'Cs'
p933
sbsg46
(lp934
sbag2
(g19
g4
NtRp935
(dp936
g22
I159
sg23
F-5.8708922117824764
sg24
F18.889435026266064
sg25
F17.300307869772443
sg26
I44
sg27
S'Pb'
p937
sg29
I907
sS'y'
F0.34665899999999999
sS'x'
F43000.514586999998
sS'z'
F0.236877
sg30
g139
sg46
(lp938
sbag2
(g19
g4
NtRp939
(dp940
g22
I160
sg23
F1.4599011219505675
sg24
F-31.651013292823766
sg25
F-26.856166271449226
sg26
I44
sg27
S'Cl'
p941
sg29
I344
sS'y'
F1.225943
sS'x'
F43003.015448999999
sS'z'
F0.72894000000000003
sg30
g2
(g31
g4
NtRp942
(dp943
g34
I0
sg35
g36
sg22
I344
sg37
S'Chloride Ion Cl-'
p944
sg39
F4.0199999999999996
sg27
I17
sg40
F0.70999999999999996
sg41
F-1
sg42
F35.453000000000003
sg43
I21
sg44
S'Cl'
p945
sbsg46
(lp946
sbag2
(g19
g4
NtRp947
(dp948
g22
I161
sg23
F10.899458200642469
sg24
F-14.997603423213738
sg25
F-0.61210291213948476
sg26
I44
sg27
S'Cl'
p949
sg29
I344
sS'y'
F2.8715480000000002
sS'x'
F42999.576163999998
sS'z'
F0.41889100000000001
sg30
g942
sg46
(lp950
sbag2
(g19
g4
NtRp951
(dp952
g22
I162
sg23
F3.5646647214321994
sg24
F1.5438695280831873
sg25
F-11.441272347777595
sg26
I44
sg27
S'Cl'
p953
sg29
I344
sS'y'
F-0.054801999999999997
sS'x'
F43000.110844000003
sS'z'
F2.7665320000000002
sg30
g942
sg46
(lp954
sbag2
(g19
g4
NtRp955
(dp956
g22
I163
sg23
F-10.202316517471651
sg24
F25.894456367714316
sg25
F21.359117650407999
sg26
I44
sg27
S'Cs'
p957
sg29
I352
sS'y'
F3.3984209999999999
sS'x'
F43002.919336999999
sS'z'
F2.4934310000000002
sg30
g2
(g31
g4
NtRp958
(dp959
g34
I0
sg35
g36
sg22
I352
sg37
S'Cesium Ion Cs+'
p960
sg39
F6.2000000000000002
sg27
I55
sg40
F0.01
sg41
F1
sg42
F132.905
sg43
I72
sg44
S'Cs'
p961
sbsg46
(lp962
sbag2
(g19
g4
NtRp963
(dp964
g22
I164
sg23
F36.335177686858508
sg24
F-0.6915711414182697
sg25
F20.041884558046441
sg26
I45
sg27
S'Pb'
p965
sg29
I907
sS'y'
F0.51741000000000004
sS'x'
F44000.137953999998
sS'z'
F0.36054900000000001
sg30
g139
sg46
(lp966
sbag2
(g19
g4
NtRp967
(dp968
g22
I165
sg23
F-23.263964728370276
sg24
F7.907536518508385
sg25
F1.85425156169052
sg26
I45
sg27
S'Cl'
p969
sg29
I344
sS'y'
F-0.37304500000000002
sS'x'
F44002.668562999999
sS'z'
F-0.028915
sg30
g2
(g31
g4
NtRp970
(dp971
g34
I0
sg35
g36
sg22
I344
sg37
S'Chloride Ion Cl-'
p972
sg39
F4.0199999999999996
sg27
I17
sg40
F0.70999999999999996
sg41
F-1
sg42
F35.453000000000003
sg43
I21
sg44
S'Cl'
p973
sbsg46
(lp974
sbag2
(g19
g4
NtRp975
(dp976
g22
I166
sg23
F-1.5990023152043544
sg24
F-1.1350408496095703
sg25
F2.1006116581933552
sg26
I45
sg27
S'Cl'
p977
sg29
I344
sS'y'
F3.0334110000000001
sS'x'
F44001.000831999998
sS'z'
F0.24291399999999999
sg30
g970
sg46
(lp978
sbag2
(g19
g4
NtRp979
(dp980
g22
I167
sg23
F-2.7155200548398137
sg24
F5.0585569396251815
sg25
F-17.644837366667588
sg26
I45
sg27
S'Cl'
p981
sg29
I344
sS'y'
F0.49255399999999999
sS'x'
F44000.557013999998
sS'z'
F3.062233
sg30
g970
sg46
(lp982
sbag2
(g19
g4
NtRp983
(dp984
g22
I168
sg23
F-9.796335293483887
sg24
F-11.870326618050383
sg25
F-6.7670470587453559
sg26
I45
sg27
S'Cs'
p985
sg29
I352
sS'y'
F3.71651
sS'x'
F44003.146247999997
sS'z'
F2.8168739999999999
sg30
g2
(g31
g4
NtRp986
(dp987
g34
I0
sg35
g36
sg22
I352
sg37
S'Cesium Ion Cs+'
p988
sg39
F6.2000000000000002
sg27
I55
sg40
F0.01
sg41
F1
sg42
F132.905
sg43
I72
sg44
S'Cs'
p989
sbsg46
(lp990
sbag2
(g19
g4
NtRp991
(dp992
g22
I169
sg23
F-2.4528553745213824
sg24
F-2.7405479862336195
sg25
F15.520984769229969
sg26
I46
sg27
S'Pb'
p993
sg29
I907
sS'y'
F0.52570099999999997
sS'x'
F45000.404581000003
sS'z'
F0.21112800000000001
sg30
g139
sg46
(lp994
sbag2
(g19
g4
NtRp995
(dp996
g22
I170
sg23
F7.3399931794279638
sg24
F3.0560080185035132
sg25
F0.15834579341830055
sg26
I46
sg27
S'Cl'
p997
sg29
I344
sS'y'
F0.375859
sS'x'
F45002.936733000002
sS'z'
F0.45230900000000002
sg30
g2
(g31
g4
NtRp998
(dp999
g34
I0
sg35
g36
sg22
I344
sg37
S'Chloride Ion Cl-'
p1000
sg39
F4.0199999999999996
sg27
I17
sg40
F0.70999999999999996
sg41
F-1
sg42
F35.453000000000003
sg43
I21
sg44
S'Cl'
p1001
sbsg46
(lp1002
sbag2
(g19
g4
NtRp1003
(dp1004
g22
I171
sg23
F5.553147184879295
sg24
F7.9213581584209232
sg25
F3.5409658678286116
sg26
I46
sg27
S'Cl'
p1005
sg29
I344
sS'y'
F3.0690810000000002
sS'x'
F45000.418433999999
sS'z'
F0.80519799999999997
sg30
g998
sg46
(lp1006
sbag2
(g19
g4
NtRp1007
(dp1008
g22
I172
sg23
F0.34067244587548962
sg24
F2.7880576513298685
sg25
F-10.025353945870741
sg26
I46
sg27
S'Cl'
p1009
sg29
I344
sS'y'
F-0.16255800000000001
sS'x'
F45000.038060999999
sS'z'
F2.7079
sg30
g998
sg46
(lp1010
sbag2
(g19
g4
NtRp1011
(dp1012
g22
I173
sg23
F-10.681158179744964
sg24
F-11.316662279276585
sg25
F-9.7043912692043648
sg26
I46
sg27
S'Cs'
p1013
sg29
I352
sS'y'
F4.0588819999999997
sS'x'
F45003.425465
sS'z'
F3.0086249999999999
sg30
g2
(g31
g4
NtRp1014
(dp1015
g34
I0
sg35
g36
sg22
I352
sg37
S'Cesium Ion Cs+'
p1016
sg39
F6.2000000000000002
sg27
I55
sg40
F0.01
sg41
F1
sg42
F132.905
sg43
I72
sg44
S'Cs'
p1017
sbsg46
(lp1018
sbag2
(g19
g4
NtRp1019
(dp1020
g22
I174
sg23
F1.9341366507824105
sg24
F-11.747194411234881
sg25
F17.902660826404844
sg26
I47
sg27
S'Pb'
p1021
sg29
I907
sS'y'
F0.58420300000000003
sS'x'
F46000.227327000001
sS'z'
F0.33728000000000002
sg30
g139
sg46
(lp1022
sbag2
(g19
g4
NtRp1023
(dp1024
g22
I175
sg23
F3.2364421870546218
sg24
F0.34021379632413296
sg25
F-3.1287038140900876
sg26
I47
sg27
S'Cl'
p1025
sg29
I344
sS'y'
F-0.169516
sS'x'
F46002.573713999998
sS'z'
F-0.19650100000000001
sg30
g2
(g31
g4
NtRp1026
(dp1027
g34
I0
sg35
g36
sg22
I344
sg37
S'Chloride Ion Cl-'
p1028
sg39
F4.0199999999999996
sg27
I17
sg40
F0.70999999999999996
sg41
F-1
sg42
F35.453000000000003
sg43
I21
sg44
S'Cl'
p1029
sbsg46
(lp1030
sbag2
(g19
g4
NtRp1031
(dp1032
g22
I176
sg23
F7.5651903190295222
sg24
F16.706438211032307
sg25
F4.537325745722371
sg26
I47
sg27
S'Cl'
p1033
sg29
I344
sS'y'
F3.0482079999999998
sS'x'
F46000.881036999999
sS'z'
F0.67119899999999999
sg30
g1026
sg46
(lp1034
sbag2
(g19
g4
NtRp1035
(dp1036
g22
I177
sg23
F-2.8732826038152286
sg24
F4.8909223553193932
sg25
F-11.441623444663126
sg26
I47
sg27
S'Cl'
p1037
sg29
I344
sS'y'
F0.094810000000000005
sS'x'
F46000.604609000002
sS'z'
F2.9410539999999998
sg30
g1026
sg46
(lp1038
sbag2
(g19
g4
NtRp1039
(dp1040
g22
I178
sg23
F-10.500386061202034
sg24
F-10.395342289184407
sg25
F-8.20173597460421
sg26
I47
sg27
S'Cs'
p1041
sg29
I352
sS'y'
F4.1314190000000002
sS'x'
F46003.412497999998
sS'z'
F3.0217019999999999
sg30
g2
(g31
g4
NtRp1042
(dp1043
g34
I0
sg35
g36
sg22
I352
sg37
S'Cesium Ion Cs+'
p1044
sg39
F6.2000000000000002
sg27
I55
sg40
F0.01
sg41
F1
sg42
F132.905
sg43
I72
sg44
S'Cs'
p1045
sbsg46
(lp1046
sbag2
(g19
g4
NtRp1047
(dp1048
g22
I179
sg23
F-2.7794351471972649
sg24
F13.342171591547563
sg25
F28.257993768174739
sg26
I48
sg27
S'Pb'
p1049
sg29
I907
sS'y'
F0.39212900000000001
sS'x'
F47000.542013999999
sS'z'
F0.18048700000000001
sg30
g139
sg46
(lp1050
sbag2
(g19
g4
NtRp1051
(dp1052
g22
I180
sg23
F0.87772443403230449
sg24
F4.9648313221144074
sg25
F1.7042196257445834
sg26
I48
sg27
S'Cl'
p1053
sg29
I344
sS'y'
F1.097817
sS'x'
F47003.042684
sS'z'
F0.729105
sg30
g2
(g31
g4
NtRp1054
(dp1055
g34
I0
sg35
g36
sg22
I344
sg37
S'Chloride Ion Cl-'
p1056
sg39
F4.0199999999999996
sg27
I17
sg40
F0.70999999999999996
sg41
F-1
sg42
F35.453000000000003
sg43
I21
sg44
S'Cl'
p1057
sbsg46
(lp1058
sbag2
(g19
g4
NtRp1059
(dp1060
g22
I181
sg23
F6.6180639785879203
sg24
F-7.9123836561996503
sg25
F-3.5369594898201928
sg26
I48
sg27
S'Cl'
p1061
sg29
I344
sS'y'
F2.8572350000000002
sS'x'
F46999.674763000003
sS'z'
F0.61136000000000001
sg30
g1054
sg46
(lp1062
sbag2
(g19
g4
NtRp1063
(dp1064
g22
I182
sg23
F3.9800562161191779
sg24
F1.4341045840432312
sg25
F-17.470735596845358
sg26
I48
sg27
S'Cl'
p1065
sg29
I344
sS'y'
F-0.204566
sS'x'
F47000.052514000003
sS'z'
F2.7246950000000001
sg30
g1054
sg46
(lp1066
sbag2
(g19
g4
NtRp1067
(dp1068
g22
I183
sg23
F-9.3260235865238439
sg24
F-12.915026679023866
sg25
F-10.015024242826119
sg26
I48
sg27
S'Cs'
p1069
sg29
I352
sS'y'
F4.0538449999999999
sS'x'
F47003.463087999997
sS'z'
F2.9975049999999999
sg30
g2
(g31
g4
NtRp1070
(dp1071
g34
I0
sg35
g36
sg22
I352
sg37
S'Cesium Ion Cs+'
p1072
sg39
F6.2000000000000002
sg27
I55
sg40
F0.01
sg41
F1
sg42
F132.905
sg43
I72
sg44
S'Cs'
p1073
sbsg46
(lp1074
sbag2
(g19
g4
NtRp1075
(dp1076
g22
I184
sg23
F3.5123415726530061
sg24
F11.373434831599006
sg25
F1.3939910658462522
sg26
I49
sg27
S'Pb'
p1077
sg29
I907
sS'y'
F0.29570400000000002
sS'x'
F48000.447724999998
sS'z'
F0.42774800000000002
sg30
g139
sg46
(lp1078
sbag2
(g19
g4
NtRp1079
(dp1080
g22
I185
sg23
F1.0335264191333566
sg24
F3.8467858083689896
sg25
F2.2680497541270959
sg26
I49
sg27
S'Cl'
p1081
sg29
I344
sS'y'
F0.61711499999999997
sS'x'
F48003.036956999997
sS'z'
F0.48859200000000003
sg30
g2
(g31
g4
NtRp1082
(dp1083
g34
I0
sg35
g36
sg22
I344
sg37
S'Chloride Ion Cl-'
p1084
sg39
F4.0199999999999996
sg27
I17
sg40
F0.70999999999999996
sg41
F-1
sg42
F35.453000000000003
sg43
I21
sg44
S'Cl'
p1085
sbsg46
(lp1086
sbag2
(g19
g4
NtRp1087
(dp1088
g22
I186
sg23
F2.5588867798036485
sg24
F-4.4364902413750853
sg25
F1.7501546695828938
sg26
I49
sg27
S'Cl'
p1089
sg29
I344
sS'y'
F2.764993
sS'x'
F47999.981263000001
sS'z'
F-0.26478299999999999
sg30
g1082
sg46
(lp1090
sbag2
(g19
g4
NtRp1091
(dp1092
g22
I187
sg23
F1.9026759052856133
sg24
F1.8930824709770993
sg25
F3.061968889123035
sg26
I49
sg27
S'Cl'
p1093
sg29
I344
sS'y'
F0.878054
sS'x'
F48000.269035999998
sS'z'
F2.9329499999999999
sg30
g1082
sg46
(lp1094
sbag2
(g19
g4
NtRp1095
(dp1096
g22
I188
sg23
F-9.5550646847978573
sg24
F-12.790884324280535
sg25
F-8.3670882251975591
sg26
I49
sg27
S'Cs'
p1097
sg29
I352
sS'y'
F4.1102189999999998
sS'x'
F48003.397304999999
sS'z'
F3.0445259999999998
sg30
g2
(g31
g4
NtRp1098
(dp1099
g34
I0
sg35
g36
sg22
I352
sg37
S'Cesium Ion Cs+'
p1100
sg39
F6.2000000000000002
sg27
I55
sg40
F0.01
sg41
F1
sg42
F132.905
sg43
I72
sg44
S'Cs'
p1101
sbsg46
(lp1102
sbag2
(g19
g4
NtRp1103
(dp1104
g22
I189
sg23
F23.787392864616393
sg24
F4.6667589787253219
sg25
F2.0779969329948624
sg26
I50
sg27
S'Pb'
p1105
sg29
I907
sS'y'
F0.44615899999999997
sS'x'
F49000.177730000003
sS'z'
F0.54408000000000001
sg30
g139
sg46
(lp1106
sbag2
(g19
g4
NtRp1107
(dp1108
g22
I190
sg23
F-11.775427789389887
sg24
F-0.29027366224925943
sg25
F4.4877046932914677
sg26
I50
sg27
S'Cl'
p1109
sg29
I344
sS'y'
F0.25622099999999998
sS'x'
F49002.471921999997
sS'z'
F-0.70963799999999999
sg30
g2
(g31
g4
NtRp1110
(dp1111
g34
I0
sg35
g36
sg22
I344
sg37
S'Chloride Ion Cl-'
p1112
sg39
F4.0199999999999996
sg27
I17
sg40
F0.70999999999999996
sg41
F-1
sg42
F35.453000000000003
sg43
I21
sg44
S'Cl'
p1113
sbsg46
(lp1114
sbag2
(g19
g4
NtRp1115
(dp1116
g22
I191
sg23
F1.3577781682833832
sg24
F2.5812704139868869
sg25
F4.4766362538742399
sg26
I50
sg27
S'Cl'
p1117
sg29
I344
sS'y'
F3.0501200000000002
sS'x'
F49000.335911000002
sS'z'
F0.50904199999999999
sg30
g1110
sg46
(lp1118
sbag2
(g19
g4
NtRp1119
(dp1120
g22
I192
sg23
F-2.6484671012135128
sg24
F5.2915616965071779
sg25
F-2.8453176193707255
sg26
I50
sg27
S'Cl'
p1121
sg29
I344
sS'y'
F0.325044
sS'x'
F49001.428674000003
sS'z'
F2.8793700000000002
sg30
g1110
sg46
(lp1122
sbag2
(g19
g4
NtRp1123
(dp1124
g22
I193
sg23
F-11.420350549279286
sg24
F-12.158175504316116
sg25
F-8.4780987185403571
sg26
I50
sg27
S'Cs'
p1125
sg29
I352
sS'y'
F4.0990419999999999
sS'x'
F49003.469965999997
sS'z'
F3.0383779999999998
sg30
g2
(g31
g4
NtRp1126
(dp1127
g34
I0
sg35
g36
sg22
I352
sg37
S'Cesium Ion Cs+'
p1128
sg39
F6.2000000000000002
sg27
I55
sg40
F0.01
sg41
F1
sg42
F132.905
sg43
I72
sg44
S'Cs'
p1129
sbsg46
(lp1130
sbag2
(g19
g4
NtRp1131
(dp1132
g22
I194
sg23
F20.703641188859084
sg24
F14.216733268574265
sg25
F11.145682196498422
sg26
I51
sg27
S'Pb'
p1133
sg29
I907
sS'y'
F0.43864599999999998
sS'x'
F50000.249180999999
sS'z'
F0.35875499999999999
sg30
g139
sg46
(lp1134
sbag2
(g19
g4
NtRp1135
(dp1136
g22
I195
sg23
F-9.4369330549946113
sg24
F2.3584047758438302
sg25
F-1.1692728149213114
sg26
I51
sg27
S'Cl'
p1137
sg29
I344
sS'y'
F-0.40944199999999997
sS'x'
F50002.703042000001
sS'z'
F0.60156100000000001
sg30
g2
(g31
g4
NtRp1138
(dp1139
g34
I0
sg35
g36
sg22
I344
sg37
S'Chloride Ion Cl-'
p1140
sg39
F4.0199999999999996
sg27
I17
sg40
F0.70999999999999996
sg41
F-1
sg42
F35.453000000000003
sg43
I21
sg44
S'Cl'
p1141
sbsg46
(lp1142
sbag2
(g19
g4
NtRp1143
(dp1144
g22
I196
sg23
F-1.8766810327255856
sg24
F-6.4710065513553037
sg25
F6.1495069734317394
sg26
I51
sg27
S'Cl'
p1145
sg29
I344
sS'y'
F2.938707
sS'x'
F50001.172844000001
sS'z'
F-0.18637000000000001
sg30
g1138
sg46
(lp1146
sbag2
(g19
g4
NtRp1147
(dp1148
g22
I197
sg23
F1.0016269015434147
sg24
F0.76872038647585439
sg25
F-6.5935693258518375
sg26
I51
sg27
S'Cl'
p1149
sg29
I344
sS'y'
F1.00667
sS'x'
F50000.084443
sS'z'
F2.9204210000000002
sg30
g1138
sg46
(lp1150
sbag2
(g19
g4
NtRp1151
(dp1152
g22
I198
sg23
F-11.645111894315443
sg24
F-11.713983988141727
sg25
F-10.228156975988348
sg26
I51
sg27
S'Cs'
p1153
sg29
I352
sS'y'
F4.0900449999999999
sS'x'
F50003.433981000002
sS'z'
F3.0031659999999998
sg30
g2
(g31
g4
NtRp1154
(dp1155
g34
I0
sg35
g36
sg22
I352
sg37
S'Cesium Ion Cs+'
p1156
sg39
F6.2000000000000002
sg27
I55
sg40
F0.01
sg41
F1
sg42
F132.905
sg43
I72
sg44
S'Cs'
p1157
sbsg46
(lp1158
sbag2
(g19
g4
NtRp1159
(dp1160
g22
I199
sg23
F15.134295530904989
sg24
F13.993736424740328
sg25
F3.4210508613605288
sg26
I52
sg27
S'Pb'
p1161
sg29
I907
sS'y'
F0.34178700000000001
sS'x'
F51000.270034000001
sS'z'
F0.41711100000000001
sg30
g139
sg46
(lp1162
sbag2
(g19
g4
NtRp1163
(dp1164
g22
I200
sg23
F-8.0405614883264818
sg24
F-1.5713336878551611
sg25
F4.9829247372454244
sg26
I52
sg27
S'Cl'
p1165
sg29
I344
sS'y'
F0.954565
sS'x'
F51002.623714000001
sS'z'
F-0.61931599999999998
sg30
g2
(g31
g4
NtRp1166
(dp1167
g34
I0
sg35
g36
sg22
I344
sg37
S'Chloride Ion Cl-'
p1168
sg39
F4.0199999999999996
sg27
I17
sg40
F0.70999999999999996
sg41
F-1
sg42
F35.453000000000003
sg43
I21
sg44
S'Cl'
p1169
sbsg46
(lp1170
sbag2
(g19
g4
NtRp1171
(dp1172
g22
I201
sg23
F3.0901540422378897
sg24
F-3.8625991997135154
sg25
F1.7102203449582229
sg26
I52
sg27
S'Cl'
p1173
sg29
I344
sS'y'
F2.8900459999999999
sS'x'
F50999.734912
sS'z'
F0.82510899999999998
sg30
g1166
sg46
(lp1174
sbag2
(g19
g4
NtRp1175
(dp1176
g22
I202
sg23
F-0.2901642834612787
sg24
F2.6653386876569765
sg25
F-1.9928312998346256
sg26
I52
sg27
S'Cl'
p1177
sg29
I344
sS'y'
F0.055690000000000003
sS'x'
F51001.269117000003
sS'z'
F2.8063060000000002
sg30
g1166
sg46
(lp1178
sbag2
(g19
g4
NtRp1179
(dp1180
g22
I203
sg23
F-10.652156136972545
sg24
F-12.142083366097118
sg25
F-8.4139572095660444
sg26
I52
sg27
S'Cs'
p1181
sg29
I352
sS'y'
F4.1014499999999998
sS'x'
F51003.442787
sS'z'
F3.005204
sg30
g2
(g31
g4
NtRp1182
(dp1183
g34
I0
sg35
g36
sg22
I352
sg37
S'Cesium Ion Cs+'
p1184
sg39
F6.2000000000000002
sg27
I55
sg40
F0.01
sg41
F1
sg42
F132.905
sg43
I72
sg44
S'Cs'
p1185
sbsg46
(lp1186
sbag2
(g19
g4
NtRp1187
(dp1188
g22
I204
sg23
F10.387642697701446
sg24
F20.902865613639928
sg25
F8.9351277596122731
sg26
I53
sg27
S'Pb'
p1189
sg29
I907
sS'y'
F0.29938199999999998
sS'x'
F52000.429174999997
sS'z'
F0.37076900000000002
sg30
g139
sg46
(lp1190
sbag2
(g19
g4
NtRp1191
(dp1192
g22
I205
sg23
F-6.0802421732223033
sg24
F3.1059054070904901
sg25
F0.96853921401741627
sg26
I53
sg27
S'Cl'
p1193
sg29
I344
sS'y'
F0.37412600000000001
sS'x'
F52003.042103
sS'z'
F0.82242400000000004
sg30
g2
(g31
g4
NtRp1194
(dp1195
g34
I0
sg35
g36
sg22
I344
sg37
S'Chloride Ion Cl-'
p1196
sg39
F4.0199999999999996
sg27
I17
sg40
F0.70999999999999996
sg41
F-1
sg42
F35.453000000000003
sg43
I21
sg44
S'Cl'
p1197
sbsg46
(lp1198
sbag2
(g19
g4
NtRp1199
(dp1200
g22
I206
sg23
F2.3047502796654573
sg24
F-11.833211432346054
sg25
F4.6246445856003557
sg26
I53
sg27
S'Cl'
p1201
sg29
I344
sS'y'
F2.9453819999999999
sS'x'
F52000.395210000002
sS'z'
F-0.17200299999999999
sg30
g1194
sg46
(lp1202
sbag2
(g19
g4
NtRp1203
(dp1204
g22
I207
sg23
F2.0906284108380873
sg24
F-0.26011428254611618
sg25
F-5.4854938236334601
sg26
I53
sg27
S'Cl'
p1205
sg29
I344
sS'y'
F0.66976800000000003
sS'x'
F51999.857544999999
sS'z'
F2.8753790000000001
sg30
g1194
sg46
(lp1206
sbag2
(g19
g4
NtRp1207
(dp1208
g22
I208
sg23
F-9.6385633826679538
sg24
F-12.235065877585852
sg25
F-9.581672550990751
sg26
I53
sg27
S'Cs'
p1209
sg29
I352
sS'y'
F4.1271659999999999
sS'x'
F52003.408697999999
sS'z'
F3.0564870000000002
sg30
g2
(g31
g4
NtRp1210
(dp1211
g34
I0
sg35
g36
sg22
I352
sg37
S'Cesium Ion Cs+'
p1212
sg39
F6.2000000000000002
sg27
I55
sg40
F0.01
sg41
F1
sg42
F132.905
sg43
I72
sg44
S'Cs'
p1213
sbsg46
(lp1214
sbag2
(g19
g4
NtRp1215
(dp1216
g22
I209
sg23
F0.91829170563884222
sg24
F19.756153616554002
sg25
F-14.979233207095557
sg26
I54
sg27
S'Pb'
p1217
sg29
I907
sS'y'
F0.23491999999999999
sS'x'
F53000.425523999998
sS'z'
F0.64988500000000005
sg30
g139
sg46
(lp1218
sbag2
(g19
g4
NtRp1219
(dp1220
g22
I210
sg23
F-2.9924232064248426
sg24
F-3.0524435798429601
sg25
F5.1177742485533813
sg26
I54
sg27
S'Cl'
p1221
sg29
I344
sS'y'
F0.903173
sS'x'
F53002.659135000002
sS'z'
F-0.52162900000000001
sg30
g2
(g31
g4
NtRp1222
(dp1223
g34
I0
sg35
g36
sg22
I344
sg37
S'Chloride Ion Cl-'
p1224
sg39
F4.0199999999999996
sg27
I17
sg40
F0.70999999999999996
sg41
F-1
sg42
F35.453000000000003
sg43
I21
sg44
S'Cl'
p1225
sbsg46
(lp1226
sbag2
(g19
g4
NtRp1227
(dp1228
g22
I211
sg23
F3.6852524274269864
sg24
F-12.735210536613685
sg25
F5.0980915474549038
sg26
I54
sg27
S'Cl'
p1229
sg29
I344
sS'y'
F2.528235
sS'x'
F52999.321465000001
sS'z'
F-0.091366000000000003
sg30
g1222
sg46
(lp1230
sbag2
(g19
g4
NtRp1231
(dp1232
g22
I212
sg23
F7.3555120208266329
sg24
F7.0808997584549056
sg25
F11.031001724120991
sg26
I54
sg27
S'Cl'
p1233
sg29
I344
sS'y'
F1.1931240000000001
sS'x'
F53001.161591999997
sS'z'
F2.9169100000000001
sg30
g1222
sg46
(lp1234
sbag2
(g19
g4
NtRp1235
(dp1236
g22
I213
sg23
F-9.6569370767187852
sg24
F-11.978008468976908
sg25
F-6.206348345657652
sg26
I54
sg27
S'Cs'
p1237
sg29
I352
sS'y'
F4.4323600000000001
sS'x'
F53003.701214000001
sS'z'
F3.21949
sg30
g2
(g31
g4
NtRp1238
(dp1239
g34
I0
sg35
g36
sg22
I352
sg37
S'Cesium Ion Cs+'
p1240
sg39
F6.2000000000000002
sg27
I55
sg40
F0.01
sg41
F1
sg42
F132.905
sg43
I72
sg44
S'Cs'
p1241
sbsg46
(lp1242
sbag2
(g19
g4
NtRp1243
(dp1244
g22
I214
sg23
F2.4833592118516559
sg24
F14.911448172956161
sg25
F22.207268885205014
sg26
I55
sg27
S'Pb'
p1245
sg29
I907
sS'y'
F0.36022599999999999
sS'x'
F54000.548729000002
sS'z'
F0.22644300000000001
sg30
g139
sg46
(lp1246
sbag2
(g19
g4
NtRp1247
(dp1248
g22
I215
sg23
F-1.402096113365213
sg24
F3.4746356933503622
sg25
F0.68662092506044914
sg26
I55
sg27
S'Cl'
p1249
sg29
I344
sS'y'
F0.97532200000000002
sS'x'
F54003.068997000002
sS'z'
F0.85893900000000001
sg30
g2
(g31
g4
NtRp1250
(dp1251
g34
I0
sg35
g36
sg22
I344
sg37
S'Chloride Ion Cl-'
p1252
sg39
F4.0199999999999996
sg27
I17
sg40
F0.70999999999999996
sg41
F-1
sg42
F35.453000000000003
sg43
I21
sg44
S'Cl'
p1253
sbsg46
(lp1254
sbag2
(g19
g4
NtRp1255
(dp1256
g22
I216
sg23
F3.4787676599453512
sg24
F-5.5410801495355431
sg25
F-2.5208705557843212
sg26
I55
sg27
S'Cl'
p1257
sg29
I344
sS'y'
F2.88713
sS'x'
F53999.864185999999
sS'z'
F0.329121
sg30
g1250
sg46
(lp1258
sbag2
(g19
g4
NtRp1259
(dp1260
g22
I217
sg23
F3.1941083236917365
sg24
F-1.3407299697402901
sg25
F-12.22978547225536
sg26
I55
sg27
S'Cl'
p1261
sg29
I344
sS'y'
F0.055695000000000001
sS'x'
F53999.877809999998
sS'z'
F2.7442859999999998
sg30
g1250
sg46
(lp1262
sbag2
(g19
g4
NtRp1263
(dp1264
g22
I218
sg23
F-7.8926593278166468
sg24
F-11.738616173963372
sg25
F-8.4375742635693332
sg26
I55
sg27
S'Cs'
p1265
sg29
I352
sS'y'
F4.477417
sS'x'
F54003.744504000002
sS'z'
F3.2052230000000002
sg30
g2
(g31
g4
NtRp1266
(dp1267
g34
I0
sg35
g36
sg22
I352
sg37
S'Cesium Ion Cs+'
p1268
sg39
F6.2000000000000002
sg27
I55
sg40
F0.01
sg41
F1
sg42
F132.905
sg43
I72
sg44
S'Cs'
p1269
sbsg46
(lp1270
sbag2
(g19
g4
NtRp1271
(dp1272
g22
I219
sg23
F10.490029565150889
sg24
F1.0294772185604564
sg25
F5.3892086077777845
sg26
I56
sg27
S'Pb'
p1273
sg29
I907
sS'y'
F0.37476300000000001
sS'x'
F55000.343352000004
sS'z'
F0.44262200000000002
sg30
g139
sg46
(lp1274
sbag2
(g19
g4
NtRp1275
(dp1276
g22
I220
sg23
F-2.6135860158809163
sg24
F0.84206752781788163
sg25
F0.4669077773219546
sg26
I56
sg27
S'Cl'
p1277
sg29
I344
sS'y'
F0.40940100000000001
sS'x'
F55002.941082999998
sS'z'
F0.17486399999999999
sg30
g2
(g31
g4
NtRp1278
(dp1279
g34
I0
sg35
g36
sg22
I344
sg37
S'Chloride Ion Cl-'
p1280
sg39
F4.0199999999999996
sg27
I17
sg40
F0.70999999999999996
sg41
F-1
sg42
F35.453000000000003
sg43
I21
sg44
S'Cl'
p1281
sbsg46
(lp1282
sbag2
(g19
g4
NtRp1283
(dp1284
g22
I221
sg23
F0.073480253789025521
sg24
F6.2097542093251121
sg25
F0.12769414691507991
sg26
I56
sg27
S'Cl'
p1285
sg29
I344
sS'y'
F2.8843049999999999
sS'x'
F55000.155493999999
sS'z'
F0.026232999999999999
sg30
g1278
sg46
(lp1286
sbag2
(g19
g4
NtRp1287
(dp1288
g22
I222
sg23
F0.48624039064526181
sg24
F1.8993338527294543
sg25
F0.66399747479260562
sg26
I56
sg27
S'Cl'
p1289
sg29
I344
sS'y'
F0.67259800000000003
sS'x'
F55000.555343
sS'z'
F3.0142760000000002
sg30
g1278
sg46
(lp1290
sbag2
(g19
g4
NtRp1291
(dp1292
g22
I223
sg23
F-8.6290445705198522
sg24
F-10.559774656830779
sg25
F-7.0924205816900772
sg26
I56
sg27
S'Cs'
p1293
sg29
I352
sS'y'
F4.3941160000000004
sS'x'
F55003.765131
sS'z'
F3.2426759999999999
sg30
g2
(g31
g4
NtRp1294
(dp1295
g34
I0
sg35
g36
sg22
I352
sg37
S'Cesium Ion Cs+'
p1296
sg39
F6.2000000000000002
sg27
I55
sg40
F0.01
sg41
F1
sg42
F132.905
sg43
I72
sg44
S'Cs'
p1297
sbsg46
(lp1298
sbag2
(g19
g4
NtRp1299
(dp1300
g22
I224
sg23
F5.5863982806931238
sg24
F4.1804757097832788
sg25
F10.209360553631859
sg26
I57
sg27
S'Pb'
p1301
sg29
I907
sS'y'
F0.39774700000000002
sS'x'
F56000.441127999999
sS'z'
F0.25836900000000002
sg30
g139
sg46
(lp1302
sbag2
(g19
g4
NtRp1303
(dp1304
g22
I225
sg23
F1.8687832512567539
sg24
F1.6321678844685799
sg25
F-1.2671159750336556
sg26
I57
sg27
S'Cl'
p1305
sg29
I344
sS'y'
F0.25993500000000003
sS'x'
F56002.960568000002
sS'z'
F0.87609700000000001
sg30
g2
(g31
g4
NtRp1306
(dp1307
g34
I0
sg35
g36
sg22
I344
sg37
S'Chloride Ion Cl-'
p1308
sg39
F4.0199999999999996
sg27
I17
sg40
F0.70999999999999996
sg41
F-1
sg42
F35.453000000000003
sg43
I21
sg44
S'Cl'
p1309
sbsg46
(lp1310
sbag2
(g19
g4
NtRp1311
(dp1312
g22
I226
sg23
F2.6604242810802536
sg24
F6.1092516414342839
sg25
F-1.0372821239309178
sg26
I57
sg27
S'Cl'
p1313
sg29
I344
sS'y'
F2.9776910000000001
sS'x'
F56000.525427
sS'z'
F0.17278299999999999
sg30
g1306
sg46
(lp1314
sbag2
(g19
g4
NtRp1315
(dp1316
g22
I227
sg23
F-1.8401046123459945
sg24
F-1.8553344402691543
sg25
F-0.31230504932717207
sg26
I57
sg27
S'Cl'
p1317
sg29
I344
sS'y'
F0.52125500000000002
sS'x'
F55999.826217000002
sS'z'
F2.7449539999999999
sg30
g1306
sg46
(lp1318
sbag2
(g19
g4
NtRp1319
(dp1320
g22
I228
sg23
F-8.628840608090707
sg24
F-10.588810277720734
sg25
F-8.2937480788520119
sg26
I57
sg27
S'Cs'
p1321
sg29
I352
sS'y'
F4.4720589999999998
sS'x'
F56003.684974999996
sS'z'
F3.2793049999999999
sg30
g2
(g31
g4
NtRp1322
(dp1323
g34
I0
sg35
g36
sg22
I352
sg37
S'Cesium Ion Cs+'
p1324
sg39
F6.2000000000000002
sg27
I55
sg40
F0.01
sg41
F1
sg42
F132.905
sg43
I72
sg44
S'Cs'
p1325
sbsg46
(lp1326
sbag2
(g19
g4
NtRp1327
(dp1328
g22
I229
sg23
F-2.1750433951431578
sg24
F11.109771594485238
sg25
F10.735046456318488
sg26
I58
sg27
S'Pb'
p1329
sg29
I907
sS'y'
F0.33080100000000001
sS'x'
F57000.397150999997
sS'z'
F0.41942499999999999
sg30
g139
sg46
(lp1330
sbag2
(g19
g4
NtRp1331
(dp1332
g22
I230
sg23
F6.9522904670240946
sg24
F1.5195967895056437
sg25
F0.4747682537239522
sg26
I58
sg27
S'Cl'
p1333
sg29
I344
sS'y'
F0.46142699999999998
sS'x'
F57002.942151000003
sS'z'
F0.36174499999999998
sg30
g2
(g31
g4
NtRp1334
(dp1335
g34
I0
sg35
g36
sg22
I344
sg37
S'Chloride Ion Cl-'
p1336
sg39
F4.0199999999999996
sg27
I17
sg40
F0.70999999999999996
sg41
F-1
sg42
F35.453000000000003
sg43
I21
sg44
S'Cl'
p1337
sbsg46
(lp1338
sbag2
(g19
g4
NtRp1339
(dp1340
g22
I231
sg23
F1.2338341185479029
sg24
F-2.3927982367583147
sg25
F0.74943179811174487
sg26
I58
sg27
S'Cl'
p1341
sg29
I344
sS'y'
F2.7840790000000002
sS'x'
F57000.068271999997
sS'z'
F-0.343391
sg30
g1334
sg46
(lp1342
sbag2
(g19
g4
NtRp1343
(dp1344
g22
I232
sg23
F2.4392394816573626
sg24
F-0.16100770322129299
sg25
F-5.8048343927511645
sg26
I58
sg27
S'Cl'
p1345
sg29
I344
sS'y'
F1.011789
sS'x'
F57000.325981000002
sS'z'
F2.9912920000000001
sg30
g1334
sg46
(lp1346
sbag2
(g19
g4
NtRp1347
(dp1348
g22
I233
sg23
F-8.6700592408680155
sg24
F-10.737165954481407
sg25
F-6.52714194831435
sg26
I58
sg27
S'Cs'
p1349
sg29
I352
sS'y'
F4.46157
sS'x'
F57003.740052000001
sS'z'
F3.2135940000000001
sg30
g2
(g31
g4
NtRp1350
(dp1351
g34
I0
sg35
g36
sg22
I352
sg37
S'Cesium Ion Cs+'
p1352
sg39
F6.2000000000000002
sg27
I55
sg40
F0.01
sg41
F1
sg42
F132.905
sg43
I72
sg44
S'Cs'
p1353
sbsg46
(lp1354
sbag2
(g19
g4
NtRp1355
(dp1356
g22
I234
sg23
F7.0705706162906576
sg24
F19.293474827459853
sg25
F8.0619982758019439
sg26
I59
sg27
S'Pb'
p1357
sg29
I907
sS'y'
F0.34372799999999998
sS'x'
F58000.397268000001
sS'z'
F0.33755600000000002
sg30
g139
sg46
(lp1358
sbag2
(g19
g4
NtRp1359
(dp1360
g22
I235
sg23
F-1.1270086382770441
sg24
F0.82416564799901981
sg25
F0.24475926446303739
sg26
I59
sg27
S'Cl'
p1361
sg29
I344
sS'y'
F0.232485
sS'x'
F58002.975259999999
sS'z'
F0.61863800000000002
sg30
g2
(g31
g4
NtRp1362
(dp1363
g34
I0
sg35
g36
sg22
I344
sg37
S'Chloride Ion Cl-'
p1364
sg39
F4.0199999999999996
sg27
I17
sg40
F0.70999999999999996
sg41
F-1
sg42
F35.453000000000003
sg43
I21
sg44
S'Cl'
p1365
sbsg46
(lp1366
sbag2
(g19
g4
NtRp1367
(dp1368
g22
I236
sg23
F1.7205519464584094
sg24
F-8.8497699650408563
sg25
F1.398015375425576
sg26
I59
sg27
S'Cl'
p1369
sg29
I344
sS'y'
F2.9932979999999998
sS'x'
F58000.466342
sS'z'
F-0.073136999999999994
sg30
g1362
sg46
(lp1370
sbag2
(g19
g4
NtRp1371
(dp1372
g22
I237
sg23
F1.10480836335905
sg24
F-1.4410710028971867
sg25
F-2.3378671009545533
sg26
I59
sg27
S'Cl'
p1373
sg29
I344
sS'y'
F0.76699200000000001
sS'x'
F58000.002648000001
sS'z'
F2.8608570000000002
sg30
g1362
sg46
(lp1374
sbag2
(g19
g4
NtRp1375
(dp1376
g22
I238
sg23
F-8.4223451732097967
sg24
F-9.7771030184581118
sg25
F-7.7453575749263432
sg26
I59
sg27
S'Cs'
p1377
sg29
I352
sS'y'
F4.432099
sS'x'
F58003.761910000001
sS'z'
F3.2299570000000002
sg30
g2
(g31
g4
NtRp1378
(dp1379
g34
I0
sg35
g36
sg22
I352
sg37
S'Cesium Ion Cs+'
p1380
sg39
F6.2000000000000002
sg27
I55
sg40
F0.01
sg41
F1
sg42
F132.905
sg43
I72
sg44
S'Cs'
p1381
sbsg46
(lp1382
sbag2
(g19
g4
NtRp1383
(dp1384
g22
I239
sg23
F1.5202974986631066
sg24
F21.726966850516082
sg25
F1.2339439775822938
sg26
I60
sg27
S'Pb'
p1385
sg29
I907
sS'y'
F0.23118900000000001
sS'x'
F59000.486924999997
sS'z'
F0.384745
sg30
g139
sg46
(lp1386
sbag2
(g19
g4
NtRp1387
(dp1388
g22
I240
sg23
F1.236851073929131
sg24
F1.0522368560381172
sg25
F1.4950215360065957
sg26
I60
sg27
S'Cl'
p1389
sg29
I344
sS'y'
F1.1453199999999999
sS'x'
F59002.946612
sS'z'
F0.25304500000000002
sg30
g2
(g31
g4
NtRp1390
(dp1391
g34
I0
sg35
g36
sg22
I344
sg37
S'Chloride Ion Cl-'
p1392
sg39
F4.0199999999999996
sg27
I17
sg40
F0.70999999999999996
sg41
F-1
sg42
F35.453000000000003
sg43
I21
sg44
S'Cl'
p1393
sbsg46
(lp1394
sbag2
(g19
g4
NtRp1395
(dp1396
g22
I241
sg23
F4.0381097041972209
sg24
F-11.106718895727358
sg25
F-0.4946969915802894
sg26
I60
sg27
S'Cl'
p1397
sg29
I344
sS'y'
F2.683265
sS'x'
F58999.502376999997
sS'z'
F0.13491700000000001
sg30
g1390
sg46
(lp1398
sbag2
(g19
g4
NtRp1399
(dp1400
g22
I242
sg23
F0.85356459723554412
sg24
F-1.3004288364648158
sg25
F5.2833480694251271
sg26
I60
sg27
S'Cl'
p1401
sg29
I344
sS'y'
F0.46845100000000001
sS'x'
F59000.509594000003
sS'z'
F2.9196650000000002
sg30
g1390
sg46
(lp1402
sbag2
(g19
g4
NtRp1403
(dp1404
g22
I243
sg23
F-7.9080147775285976
sg24
F-11.330711967457987
sg25
F-8.1595320445756645
sg26
I60
sg27
S'Cs'
p1405
sg29
I352
sS'y'
F4.4781620000000002
sS'x'
F59003.731144999998
sS'z'
F3.2401170000000001
sg30
g2
(g31
g4
NtRp1406
(dp1407
g34
I0
sg35
g36
sg22
I352
sg37
S'Cesium Ion Cs+'
p1408
sg39
F6.2000000000000002
sg27
I55
sg40
F0.01
sg41
F1
sg42
F132.905
sg43
I72
sg44
S'Cs'
p1409
sbsg46
(lp1410
sbag2
(g19
g4
NtRp1411
(dp1412
g22
I244
sg23
F1.0148846230772539
sg24
F3.2078947206325217
sg25
F-0.78246712929267215
sg26
I61
sg27
S'Pb'
p1413
sg29
I907
sS'y'
F0.55539099999999997
sS'x'
F60000.313372999997
sS'z'
F0.30956400000000001
sg30
g139
sg46
(lp1414
sbag2
(g19
g4
NtRp1415
(dp1416
g22
I245
sg23
F4.4855771305462362
sg24
F1.5374520996522301
sg25
F-1.7313249204971179
sg26
I61
sg27
S'Cl'
p1417
sg29
I344
sS'y'
F0.44303399999999998
sS'x'
F60002.838905999997
sS'z'
F-0.049250000000000002
sg30
g2
(g31
g4
NtRp1418
(dp1419
g34
I0
sg35
g36
sg22
I344
sg37
S'Chloride Ion Cl-'
p1420
sg39
F4.0199999999999996
sg27
I17
sg40
F0.70999999999999996
sg41
F-1
sg42
F35.453000000000003
sg43
I21
sg44
S'Cl'
p1421
sbsg46
(lp1422
sbag2
(g19
g4
NtRp1423
(dp1424
g22
I246
sg23
F3.7727176760556667
sg24
F5.1932869430961777
sg25
F2.8033696559356951
sg26
I61
sg27
S'Cl'
p1425
sg29
I344
sS'y'
F3.0897939999999999
sS'x'
F60000.339666
sS'z'
F0.98788100000000001
sg30
g1418
sg46
(lp1426
sbag2
(g19
g4
NtRp1427
(dp1428
g22
I247
sg23
F-1.1615992267063291
sg24
F-1.9024762650741625
sg25
F6.2767834897678707
sg26
I61
sg27
S'Cl'
p1429
sg29
I344
sS'y'
F-0.28245599999999998
sS'x'
F60000.486416
sS'z'
F2.6841059999999999
sg30
g1418
sg46
(lp1430
sbag2
(g19
g4
NtRp1431
(dp1432
g22
I248
sg23
F-8.3863508043647226
sg24
F-8.1376942454186416
sg25
F-6.8224099680884018
sg26
I61
sg27
S'Cs'
p1433
sg29
I352
sS'y'
F4.799239
sS'x'
F60003.974079
sS'z'
F3.4576220000000002
sg30
g2
(g31
g4
NtRp1434
(dp1435
g34
I0
sg35
g36
sg22
I352
sg37
S'Cesium Ion Cs+'
p1436
sg39
F6.2000000000000002
sg27
I55
sg40
F0.01
sg41
F1
sg42
F132.905
sg43
I72
sg44
S'Cs'
p1437
sbsg46
(lp1438
sbag2
(g19
g4
NtRp1439
(dp1440
g22
I249
sg23
F-10.161909103886888
sg24
F-8.1165520185611779
sg25
F7.0180613133306915
sg26
I62
sg27
S'Pb'
p1441
sg29
I907
sS'y'
F0.47776999999999997
sS'x'
F61000.536461999996
sS'z'
F0.25632700000000003
sg30
g139
sg46
(lp1442
sbag2
(g19
g4
NtRp1443
(dp1444
g22
I250
sg23
F16.219780847923548
sg24
F6.707999564947837
sg25
F4.0272391215578613
sg26
I62
sg27
S'Cl'
p1445
sg29
I344
sS'y'
F0.90674900000000003
sS'x'
F61002.970351000004
sS'z'
F0.819021
sg30
g2
(g31
g4
NtRp1446
(dp1447
g34
I0
sg35
g36
sg22
I344
sg37
S'Chloride Ion Cl-'
p1448
sg39
F4.0199999999999996
sg27
I17
sg40
F0.70999999999999996
sg41
F-1
sg42
F35.453000000000003
sg43
I21
sg44
S'Cl'
p1449
sbsg46
(lp1450
sbag2
(g19
g4
NtRp1451
(dp1452
g22
I251
sg23
F-0.29731819051381403
sg24
F11.535842475636391
sg25
F-0.1734975878216522
sg26
I62
sg27
S'Cl'
p1453
sg29
I344
sS'y'
F2.8991600000000002
sS'x'
F60999.863905999999
sS'z'
F0.57230700000000001
sg30
g1446
sg46
(lp1454
sbag2
(g19
g4
NtRp1455
(dp1456
g22
I252
sg23
F1.0109989624152731
sg24
F-0.7393587209618796
sg25
F-4.4969516209215001
sg26
I62
sg27
S'Cl'
p1457
sg29
I344
sS'y'
F-0.11724999999999999
sS'x'
F60999.917814
sS'z'
F2.6998359999999999
sg30
g1446
sg46
(lp1458
sbag2
(g19
g4
NtRp1459
(dp1460
g22
I253
sg23
F-6.8253635677030715
sg24
F-9.0827910360712796
sg25
F-6.4728119114477947
sg26
I62
sg27
S'Cs'
p1461
sg29
I352
sS'y'
F4.7628199999999996
sS'x'
F61003.968495000001
sS'z'
F3.478926
sg30
g2
(g31
g4
NtRp1462
(dp1463
g34
I0
sg35
g36
sg22
I352
sg37
S'Cesium Ion Cs+'
p1464
sg39
F6.2000000000000002
sg27
I55
sg40
F0.01
sg41
F1
sg42
F132.905
sg43
I72
sg44
S'Cs'
p1465
sbsg46
(lp1466
sbag2
(g19
g4
NtRp1467
(dp1468
g22
I254
sg23
F19.815679012447859
sg24
F4.1765443913243052
sg25
F6.4111328866936663
sg26
I63
sg27
S'Pb'
p1469
sg29
I907
sS'y'
F0.51003500000000002
sS'x'
F62000.239499000003
sS'z'
F0.42287799999999998
sg30
g139
sg46
(lp1470
sbag2
(g19
g4
NtRp1471
(dp1472
g22
I255
sg23
F-8.8229297591920428
sg24
F-0.64505378991402251
sg25
F1.2883325203195592
sg26
I63
sg27
S'Cl'
p1473
sg29
I344
sS'y'
F0.76008900000000001
sS'x'
F62002.672267000002
sS'z'
F-0.54604299999999995
sg30
g2
(g31
g4
NtRp1474
(dp1475
g34
I0
sg35
g36
sg22
I344
sg37
S'Chloride Ion Cl-'
p1476
sg39
F4.0199999999999996
sg27
I17
sg40
F0.70999999999999996
sg41
F-1
sg42
F35.453000000000003
sg43
I21
sg44
S'Cl'
p1477
sbsg46
(lp1478
sbag2
(g19
g4
NtRp1479
(dp1480
g22
I256
sg23
F0.9643979543579394
sg24
F3.1489195068842366
sg25
F2.2957664535490636
sg26
I63
sg27
S'Cl'
p1481
sg29
I344
sS'y'
F3.0328970000000002
sS'x'
F62000.175481999999
sS'z'
F1.075288
sg30
g1474
sg46
(lp1482
sbag2
(g19
g4
NtRp1483
(dp1484
g22
I257
sg23
F-3.9915179963191356
sg24
F1.6220708471731184
sg25
F-3.7293637076560442
sg26
I63
sg27
S'Cl'
p1485
sg29
I344
sS'y'
F-0.21123400000000001
sS'x'
F62001.185891000001
sS'z'
F2.7381449999999998
sg30
g1474
sg46
(lp1486
sbag2
(g19
g4
NtRp1487
(dp1488
g22
I258
sg23
F-8.0628971061692507
sg24
F-8.3574120414680664
sg25
F-6.3842621466595082
sg26
I63
sg27
S'Cs'
p1489
sg29
I352
sS'y'
F4.753876
sS'x'
F62004.027242999997
sS'z'
F3.437163
sg30
g2
(g31
g4
NtRp1490
(dp1491
g34
I0
sg35
g36
sg22
I352
sg37
S'Cesium Ion Cs+'
p1492
sg39
F6.2000000000000002
sg27
I55
sg40
F0.01
sg41
F1
sg42
F132.905
sg43
I72
sg44
S'Cs'
p1493
sbsg46
(lp1494
sbag2
(g19
g4
NtRp1495
(dp1496
g22
I259
sg23
F13.007500549088622
sg24
F5.2645112281077946
sg25
F5.8361982387518863
sg26
I64
sg27
S'Pb'
p1497
sg29
I907
sS'y'
F0.29817199999999999
sS'x'
F63000.379743999998
sS'z'
F0.50720299999999996
sg30
g139
sg46
(lp1498
sbag2
(g19
g4
NtRp1499
(dp1500
g22
I260
sg23
F-4.9445103806514075
sg24
F-0.17537889206561877
sg25
F0.83239917151198073
sg26
I64
sg27
S'Cl'
p1501
sg29
I344
sS'y'
F0.37721700000000002
sS'x'
F63002.998777000001
sS'z'
F0.96189499999999994
sg30
g2
(g31
g4
NtRp1502
(dp1503
g34
I0
sg35
g36
sg22
I344
sg37
S'Chloride Ion Cl-'
p1504
sg39
F4.0199999999999996
sg27
I17
sg40
F0.70999999999999996
sg41
F-1
sg42
F35.453000000000003
sg43
I21
sg44
S'Cl'
p1505
sbsg46
(lp1506
sbag2
(g19
g4
NtRp1507
(dp1508
g22
I261
sg23
F-1.2768511958693931
sg24
F3.4760427346985665
sg25
F-3.8573109100413356
sg26
I64
sg27
S'Cl'
p1509
sg29
I344
sS'y'
F2.5161030000000002
sS'x'
F63000.487309999997
sS'z'
F-0.71509800000000001
sg30
g1502
sg46
(lp1510
sbag2
(g19
g4
NtRp1511
(dp1512
g22
I262
sg23
F-0.01528112061136693
sg24
F0.34573257581420702
sg25
F3.1501311780637633
sg26
I64
sg27
S'Cl'
p1513
sg29
I344
sS'y'
F1.4643250000000001
sS'x'
F62999.866075999998
sS'z'
F2.7491620000000001
sg30
g1502
sg46
(lp1514
sbag2
(g19
g4
NtRp1515
(dp1516
g22
I263
sg23
F-7.0331853423767665
sg24
F-9.6606168444796303
sg25
F-6.1945219244376011
sg26
I64
sg27
S'Cs'
p1517
sg29
I352
sS'y'
F4.7365000000000004
sS'x'
F63004.004376999997
sS'z'
F3.495835
sg30
g2
(g31
g4
NtRp1518
(dp1519
g34
I0
sg35
g36
sg22
I352
sg37
S'Cesium Ion Cs+'
p1520
sg39
F6.2000000000000002
sg27
I55
sg40
F0.01
sg41
F1
sg42
F132.905
sg43
I72
sg44
S'Cs'
p1521
sbsg46
(lp1522
sbag2
(g19
g4
NtRp1523
(dp1524
g22
I264
sg23
F12.900370433697292
sg24
F4.8710678801591989
sg25
F4.4391561271440381
sg26
I65
sg27
S'Pb'
p1525
sg29
I907
sS'y'
F0.36165700000000001
sS'x'
F64000.378242999999
sS'z'
F0.32255400000000001
sg30
g139
sg46
(lp1526
sbag2
(g19
g4
NtRp1527
(dp1528
g22
I265
sg23
F-3.485317580653251
sg24
F0.6637828615652962
sg25
F-2.6556835138185897
sg26
I65
sg27
S'Cl'
p1529
sg29
I344
sS'y'
F0.00762
sS'x'
F64002.880785000001
sS'z'
F1.0479430000000001
sg30
g2
(g31
g4
NtRp1530
(dp1531
g34
I0
sg35
g36
sg22
I344
sg37
S'Chloride Ion Cl-'
p1532
sg39
F4.0199999999999996
sg27
I17
sg40
F0.70999999999999996
sg41
F-1
sg42
F35.453000000000003
sg43
I21
sg44
S'Cl'
p1533
sbsg46
(lp1534
sbag2
(g19
g4
NtRp1535
(dp1536
g22
I266
sg23
F0.95803625941224213
sg24
F2.2990332093970562
sg25
F-0.32383145290705168
sg26
I65
sg27
S'Cl'
p1537
sg29
I344
sS'y'
F2.8764729999999998
sS'x'
F64000.796225999999
sS'z'
F-0.16758700000000001
sg30
g1530
sg46
(lp1538
sbag2
(g19
g4
NtRp1539
(dp1540
g22
I267
sg23
F-3.5961156200988955
sg24
F0.49592863033834261
sg25
F4.75154514370222
sg26
I65
sg27
S'Cl'
p1541
sg29
I344
sS'y'
F0.83623800000000004
sS'x'
F63999.720142999999
sS'z'
F2.725349
sg30
g1530
sg46
(lp1542
sbag2
(g19
g4
NtRp1543
(dp1544
g22
I268
sg23
F-6.8729094955535759
sg24
F-8.6782089252156744
sg25
F-6.388646641046555
sg26
I65
sg27
S'Cs'
p1545
sg29
I352
sS'y'
F4.7783439999999997
sS'x'
F64004.017401999998
sS'z'
F3.4665979999999998
sg30
g2
(g31
g4
NtRp1546
(dp1547
g34
I0
sg35
g36
sg22
I352
sg37
S'Cesium Ion Cs+'
p1548
sg39
F6.2000000000000002
sg27
I55
sg40
F0.01
sg41
F1
sg42
F132.905
sg43
I72
sg44
S'Cs'
p1549
sbsg46
(lp1550
sbag2
(g19
g4
NtRp1551
(dp1552
g22
I269
sg23
F20.2937920756981
sg24
F8.6116408497094934
sg25
F9.0979046479205294
sg26
I66
sg27
S'Pb'
p1553
sg29
I907
sS'y'
F0.40095999999999998
sS'x'
F65000.228436999998
sS'z'
F0.37376300000000001
sg30
g139
sg46
(lp1554
sbag2
(g19
g4
NtRp1555
(dp1556
g22
I270
sg23
F-8.3073208028998184
sg24
F-1.2732111047625914
sg25
F-1.6743758651680809
sg26
I66
sg27
S'Cl'
p1557
sg29
I344
sS'y'
F-0.26539800000000002
sS'x'
F65002.758374999998
sS'z'
F0.51822199999999996
sg30
g2
(g31
g4
NtRp1558
(dp1559
g34
I0
sg35
g36
sg22
I344
sg37
S'Chloride Ion Cl-'
p1560
sg39
F4.0199999999999996
sg27
I17
sg40
F0.70999999999999996
sg41
F-1
sg42
F35.453000000000003
sg43
I21
sg44
S'Cl'
p1561
sbsg46
(lp1562
sbag2
(g19
g4
NtRp1563
(dp1564
g22
I271
sg23
F-2.3306014743574597
sg24
F1.3182484838687114
sg25
F-0.59311886758973897
sg26
I66
sg27
S'Cl'
p1565
sg29
I344
sS'y'
F2.7998050000000001
sS'x'
F65000.960988999999
sS'z'
F-0.30512400000000001
sg30
g1558
sg46
(lp1566
sbag2
(g19
g4
NtRp1567
(dp1568
g22
I272
sg23
F-1.8852520710441161
sg24
F0.092287026937898003
sg25
F-0.64177245354785506
sg26
I66
sg27
S'Cl'
p1569
sg29
I344
sS'y'
F1.114163
sS'x'
F65000.266330999999
sS'z'
F2.879902
sg30
g1558
sg46
(lp1570
sbag2
(g19
g4
NtRp1571
(dp1572
g22
I273
sg23
F-7.4452286693699614
sg24
F-8.5286457939575335
sg25
F-6.1205171063880615
sg26
I66
sg27
S'Cs'
p1573
sg29
I352
sS'y'
F4.7342110000000002
sS'x'
F65004.020753999997
sS'z'
F3.4319549999999999
sg30
g2
(g31
g4
NtRp1574
(dp1575
g34
I0
sg35
g36
sg22
I352
sg37
S'Cesium Ion Cs+'
p1576
sg39
F6.2000000000000002
sg27
I55
sg40
F0.01
sg41
F1
sg42
F132.905
sg43
I72
sg44
S'Cs'
p1577
sbsg46
(lp1578
sbag2
(g19
g4
NtRp1579
(dp1580
g22
I274
sg23
F6.9956963731836455
sg24
F12.169013695817343
sg25
F26.17498075628782
sg26
I67
sg27
S'Pb'
p1581
sg29
I907
sS'y'
F0.416912
sS'x'
F66000.357002999997
sS'z'
F0.30551699999999998
sg30
g139
sg46
(lp1582
sbag2
(g19
g4
NtRp1583
(dp1584
g22
I275
sg23
F1.2480670640162987
sg24
F0.62612222858926381
sg25
F-0.87784416124108189
sg26
I67
sg27
S'Cl'
p1585
sg29
I344
sS'y'
F1.0487869999999999
sS'x'
F66002.735031999997
sS'z'
F-0.40296500000000002
sg30
g2
(g31
g4
NtRp1586
(dp1587
g34
I0
sg35
g36
sg22
I344
sg37
S'Chloride Ion Cl-'
p1588
sg39
F4.0199999999999996
sg27
I17
sg40
F0.70999999999999996
sg41
F-1
sg42
F35.453000000000003
sg43
I21
sg44
S'Cl'
p1589
sbsg46
(lp1590
sbag2
(g19
g4
NtRp1591
(dp1592
g22
I276
sg23
F3.4012519963630594
sg24
F-8.0462797432026978
sg25
F-3.1660836795993443
sg26
I67
sg27
S'Cl'
p1593
sg29
I344
sS'y'
F2.9202210000000002
sS'x'
F65999.748363000006
sS'z'
F1.0089669999999999
sg30
g1586
sg46
(lp1594
sbag2
(g19
g4
NtRp1595
(dp1596
g22
I277
sg23
F-4.1967982998747777
sg24
F3.3672301856946705
sg25
F-16.546967278537053
sg26
I67
sg27
S'Cl'
p1597
sg29
I344
sS'y'
F-0.17688200000000001
sS'x'
F66001.090505999993
sS'z'
F2.8592629999999999
sg30
g1586
sg46
(lp1598
sbag2
(g19
g4
NtRp1599
(dp1600
g22
I278
sg23
F-7.4307823237411137
sg24
F-8.3309416443278828
sg25
F-5.8983686848352512
sg26
I67
sg27
S'Cs'
p1601
sg29
I352
sS'y'
F4.7609279999999998
sS'x'
F66004.024499000006
sS'z'
F3.478723
sg30
g2
(g31
g4
NtRp1602
(dp1603
g34
I0
sg35
g36
sg22
I352
sg37
S'Cesium Ion Cs+'
p1604
sg39
F6.2000000000000002
sg27
I55
sg40
F0.01
sg41
F1
sg42
F132.905
sg43
I72
sg44
S'Cs'
p1605
sbsg46
(lp1606
sbag2
(g19
g4
NtRp1607
(dp1608
g22
I279
sg23
F19.929480568675796
sg24
F27.519810318086076
sg25
F6.570480987572477
sg26
I68
sg27
S'Pb'
p1609
sg29
I907
sS'y'
F0.27385300000000001
sS'x'
F67000.326140000005
sS'z'
F0.48713000000000001
sg30
g139
sg46
(lp1610
sbag2
(g19
g4
NtRp1611
(dp1612
g22
I280
sg23
F-13.128925226155689
sg24
F-3.2122989632262766
sg25
F4.0227768592687738
sg26
I68
sg27
S'Cl'
p1613
sg29
I344
sS'y'
F0.61711199999999999
sS'x'
F67002.848570000002
sS'z'
F-0.31534800000000002
sg30
g2
(g31
g4
NtRp1614
(dp1615
g34
I0
sg35
g36
sg22
I344
sg37
S'Chloride Ion Cl-'
p1616
sg39
F4.0199999999999996
sg27
I17
sg40
F0.70999999999999996
sg41
F-1
sg42
F35.453000000000003
sg43
I21
sg44
S'Cl'
p1617
sbsg46
(lp1618
sbag2
(g19
g4
NtRp1619
(dp1620
g22
I281
sg23
F1.5602134067272879
sg24
F-13.820515933168451
sg25
F1.6391072719715007
sg26
I68
sg27
S'Cl'
p1621
sg29
I344
sS'y'
F2.840843
sS'x'
F66999.733869999996
sS'z'
F0.073934
sg30
g1614
sg46
(lp1622
sbag2
(g19
g4
NtRp1623
(dp1624
g22
I282
sg23
F-1.4074807286093605
sg24
F-1.6429082657842429
sg25
F-6.6942892259947131
sg26
I68
sg27
S'Cl'
p1625
sg29
I344
sS'y'
F0.815465
sS'x'
F67000.987064999994
sS'z'
F3.0135160000000001
sg30
g1614
sg46
(lp1626
sbag2
(g19
g4
NtRp1627
(dp1628
g22
I283
sg23
F-7.5349880847454695
sg24
F-9.4019942665735776
sg25
F-5.5416497846252168
sg26
I68
sg27
S'Cs'
p1629
sg29
I352
sS'y'
F4.8155780000000004
sS'x'
F67003.978503000006
sS'z'
F3.4794260000000001
sg30
g2
(g31
g4
NtRp1630
(dp1631
g34
I0
sg35
g36
sg22
I352
sg37
S'Cesium Ion Cs+'
p1632
sg39
F6.2000000000000002
sg27
I55
sg40
F0.01
sg41
F1
sg42
F132.905
sg43
I72
sg44
S'Cs'
p1633
sbsg46
(lp1634
sbasS'xy'
p1635
F0
sS'box_size'
p1636
(lp1637
F1000
aF100
aF100
asS'yz'
p1638
F0
sS'periodic'
p1639
I00
sS'angles'
p1640
(lp1641
sS'box_angles'
p1642
(lp1643
F90
aF90
aF90
asS'ylo'
p1644
F-50
sS'molecules'
p1645
(lp1646
g2
(cstructures
Molecule
p1647
g4
NtRp1648
(dp1649
g11
S'ts_6_high'
p1650
sg1640
(lp1651
sg13
(lp1652
sS'energy'
p1653
I0
sS'filename'
p1654
S'ts_hybrid/ts_6_high/ts_6_high.cml'
p1655
sS'dihedrals'
p1656
(lp1657
sg17
(lp1658
g20
asbag2
(g1647
g4
NtRp1659
(dp1660
g11
S'ts_29_high'
p1661
sg1640
(lp1662
sg13
(lp1663
sg1653
F1.5624558088203724e-07
sg1654
S'ts_hybrid/ts_29_high/ts_29_high.cml'
p1664
sg1656
(lp1665
sg17
(lp1666
g48
asbag2
(g1647
g4
NtRp1667
(dp1668
g11
S'ts_9_high'
p1669
sg1640
(lp1670
sg13
(lp1671
sg1653
F2.7107728820627335e-07
sg1654
S'ts_hybrid/ts_9_high/ts_9_high.cml'
p1672
sg1656
(lp1673
sg17
(lp1674
g56
asbag2
(g1647
g4
NtRp1675
(dp1676
g11
S'ts_30_high'
p1677
sg1640
(lp1678
sg13
(lp1679
sg1653
F5.4529344350461663e-07
sg1654
S'ts_hybrid/ts_30_high/ts_30_high.cml'
p1680
sg1656
(lp1681
sg17
(lp1682
g64
asbag2
(g1647
g4
NtRp1683
(dp1684
g11
S'ts_26_high'
p1685
sg1640
(lp1686
sg13
(lp1687
sg1653
F1.1972593233412989e-06
sg1654
S'ts_hybrid/ts_26_high/ts_26_high.cml'
p1688
sg1656
(lp1689
sg17
(lp1690
g72
asbag2
(g1647
g4
NtRp1691
(dp1692
g11
S'ts_10_high'
p1693
sg1640
(lp1694
sg13
(lp1695
sg1653
F1.2932667453491721e-06
sg1654
S'ts_hybrid/ts_10_high/ts_10_high.cml'
p1696
sg1656
(lp1697
sg17
(lp1698
g80
asbag2
(g1647
g4
NtRp1699
(dp1700
g11
S'ts_8_high'
p1701
sg1640
(lp1702
sg13
(lp1703
sg1653
F1.3986863100152271e-06
sg1654
S'ts_hybrid/ts_8_high/ts_8_high.cml'
p1704
sg1656
(lp1705
sg17
(lp1706
g88
asbag2
(g1647
g4
NtRp1707
(dp1708
g11
S'ts_7_high'
p1709
sg1640
(lp1710
sg13
(lp1711
sg1653
F1.5298321007057755e-06
sg1654
S'ts_hybrid/ts_7_high/ts_7_high.cml'
p1712
sg1656
(lp1713
sg17
(lp1714
g96
asbag2
(g1647
g4
NtRp1715
(dp1716
g11
S'ts_28_high'
p1717
sg1640
(lp1718
sg13
(lp1719
sg1653
F1.6584676894462742e-06
sg1654
S'ts_hybrid/ts_28_high/ts_28_high.cml'
p1720
sg1656
(lp1721
sg17
(lp1722
g104
asbag2
(g1647
g4
NtRp1723
(dp1724
g11
S'ts_0_high'
p1725
sg1640
(lp1726
sg13
(lp1727
sg1653
F1.7921259113958874e-06
sg1654
S'ts_hybrid/ts_0_high/ts_0_high.cml'
p1728
sg1656
(lp1729
sg17
(lp1730
g112
asbag2
(g1647
g4
NtRp1731
(dp1732
g11
S'ts_4_high'
p1733
sg1640
(lp1734
sg13
(lp1735
sg1653
F1.7921259113958874e-06
sg1654
S'ts_hybrid/ts_4_high/ts_4_high.cml'
p1736
sg1656
(lp1737
sg17
(lp1738
g120
asbag2
(g1647
g4
NtRp1739
(dp1740
g11
S'ts_27_high'
p1741
sg1640
(lp1742
sg13
(lp1743
sg1653
F3.5145970626414008e-06
sg1654
S'ts_hybrid/ts_27_high/ts_27_high.cml'
p1744
sg1656
(lp1745
sg17
(lp1746
g128
asbag2
(g1647
g4
NtRp1747
(dp1748
g11
S'ts_3_high'
p1749
sg1640
(lp1750
sg13
(lp1751
sg1653
I0
sg1654
S'ts_hybrid/ts_3_high/ts_3_high.cml'
p1752
sg1656
(lp1753
sg17
(lp1754
g136
ag143
ag151
ag155
asbag2
(g1647
g4
NtRp1755
(dp1756
g11
S'ts_25_high'
p1757
sg1640
(lp1758
sg13
(lp1759
sg1653
F1.1334942472263159
sg1654
S'ts_hybrid/ts_25_high/ts_25_high.cml'
p1760
sg1656
(lp1761
sg17
(lp1762
g159
ag163
ag171
ag175
asbag2
(g1647
g4
NtRp1763
(dp1764
g11
S'ts_24_high'
p1765
sg1640
(lp1766
sg13
(lp1767
sg1653
F1.5342377937255418
sg1654
S'ts_hybrid/ts_24_high/ts_24_high.cml'
p1768
sg1656
(lp1769
sg17
(lp1770
g179
ag183
ag191
ag195
asbag2
(g1647
g4
NtRp1771
(dp1772
g11
S'ts_21_high'
p1773
sg1640
(lp1774
sg13
(lp1775
sg1653
F1.8605717808298896
sg1654
S'ts_hybrid/ts_21_high/ts_21_high.cml'
p1776
sg1656
(lp1777
sg17
(lp1778
g199
ag203
ag211
ag215
asbag2
(g1647
g4
NtRp1779
(dp1780
g11
S'ts_22_high'
p1781
sg1640
(lp1782
sg13
(lp1783
sg1653
F2.0512554303131592
sg1654
S'ts_hybrid/ts_22_high/ts_22_high.cml'
p1784
sg1656
(lp1785
sg17
(lp1786
g219
ag223
ag231
ag235
asbag2
(g1647
g4
NtRp1787
(dp1788
g11
S'ts_5_high'
p1789
sg1640
(lp1790
sg13
(lp1791
sg1653
F3.4497570605173995
sg1654
S'ts_hybrid/ts_5_high/ts_5_high.cml'
p1792
sg1656
(lp1793
sg17
(lp1794
g239
ag243
ag251
ag255
asbag2
(g1647
g4
NtRp1795
(dp1796
g11
S'ts_34_high'
p1797
sg1640
(lp1798
sg13
(lp1799
sg1653
F6.7017447751434176
sg1654
S'ts_hybrid/ts_34_high/ts_34_high.cml'
p1800
sg1656
(lp1801
sg17
(lp1802
g259
ag263
ag271
ag275
asbag2
(g1647
g4
NtRp1803
(dp1804
g11
S'ts_32_high'
p1805
sg1640
(lp1806
sg13
(lp1807
sg1653
F6.8977900650410229
sg1654
S'ts_hybrid/ts_32_high/ts_32_high.cml'
p1808
sg1656
(lp1809
sg17
(lp1810
g279
ag283
ag291
ag295
asbag2
(g1647
g4
NtRp1811
(dp1812
g11
S'ts_35_high'
p1813
sg1640
(lp1814
sg13
(lp1815
sg1653
F8.4034672095055889
sg1654
S'ts_hybrid/ts_35_high/ts_35_high.cml'
p1816
sg1656
(lp1817
sg17
(lp1818
g299
ag303
ag311
ag315
asbag2
(g1647
g4
NtRp1819
(dp1820
g11
S'ts_2_high'
p1821
sg1640
(lp1822
sg13
(lp1823
sg1653
I0
sg1654
S'ts_hybrid/ts_2_high/ts_2_high.cml'
p1824
sg1656
(lp1825
sg17
(lp1826
g319
ag323
ag331
ag335
ag339
asbag2
(g1647
g4
NtRp1827
(dp1828
g11
S'ts_1_high'
p1829
sg1640
(lp1830
sg13
(lp1831
sg1653
F0.43088491824173347
sg1654
S'ts_hybrid/ts_1_high/ts_1_high.cml'
p1832
sg1656
(lp1833
sg17
(lp1834
g347
ag351
ag359
ag363
ag367
asbag2
(g1647
g4
NtRp1835
(dp1836
g11
S'ts_16_high'
p1837
sg1640
(lp1838
sg13
(lp1839
sg1653
F3.3062442705955166
sg1654
S'ts_hybrid/ts_16_high/ts_16_high.cml'
p1840
sg1656
(lp1841
sg17
(lp1842
g375
ag379
ag387
ag391
ag395
asbag2
(g1647
g4
NtRp1843
(dp1844
g11
S'ts_15_high'
p1845
sg1640
(lp1846
sg13
(lp1847
sg1653
F4.4295653917927433
sg1654
S'ts_hybrid/ts_15_high/ts_15_high.cml'
p1848
sg1656
(lp1849
sg17
(lp1850
g403
ag407
ag415
ag419
ag423
asbag2
(g1647
g4
NtRp1851
(dp1852
g11
S'ts_14_high'
p1853
sg1640
(lp1854
sg13
(lp1855
sg1653
F4.4372998525075955
sg1654
S'ts_hybrid/ts_14_high/ts_14_high.cml'
p1856
sg1656
(lp1857
sg17
(lp1858
g431
ag435
ag443
ag447
ag451
asbag2
(g1647
g4
NtRp1859
(dp1860
g11
S'ts_11_high'
p1861
sg1640
(lp1862
sg13
(lp1863
sg1653
F4.5849880022431604
sg1654
S'ts_hybrid/ts_11_high/ts_11_high.cml'
p1864
sg1656
(lp1865
sg17
(lp1866
g459
ag463
ag471
ag475
ag479
asbag2
(g1647
g4
NtRp1867
(dp1868
g11
S'ts_62_high'
p1869
sg1640
(lp1870
sg13
(lp1871
sg1653
F5.8152415731070297
sg1654
S'ts_hybrid/ts_62_high/ts_62_high.cml'
p1872
sg1656
(lp1873
sg17
(lp1874
g487
ag491
ag499
ag503
ag507
asbag2
(g1647
g4
NtRp1875
(dp1876
g11
S'ts_12_high'
p1877
sg1640
(lp1878
sg13
(lp1879
sg1653
F6.0143826363050463
sg1654
S'ts_hybrid/ts_12_high/ts_12_high.cml'
p1880
sg1656
(lp1881
sg17
(lp1882
g515
ag519
ag527
ag531
ag535
asbag2
(g1647
g4
NtRp1883
(dp1884
g11
S'ts_63_high'
p1885
sg1640
(lp1886
sg13
(lp1887
sg1653
F6.4636426016380302
sg1654
S'ts_hybrid/ts_63_high/ts_63_high.cml'
p1888
sg1656
(lp1889
sg17
(lp1890
g543
ag547
ag555
ag559
ag563
asbag2
(g1647
g4
NtRp1891
(dp1892
g11
S'ts_40_high'
p1893
sg1640
(lp1894
sg13
(lp1895
sg1653
F6.7318527033984665
sg1654
S'ts_hybrid/ts_40_high/ts_40_high.cml'
p1896
sg1656
(lp1897
sg17
(lp1898
g571
ag575
ag583
ag587
ag591
asbag2
(g1647
g4
NtRp1899
(dp1900
g11
S'ts_61_high'
p1901
sg1640
(lp1902
sg13
(lp1903
sg1653
F7.0183306817683526
sg1654
S'ts_hybrid/ts_61_high/ts_61_high.cml'
p1904
sg1656
(lp1905
sg17
(lp1906
g599
ag603
ag611
ag615
ag619
asbag2
(g1647
g4
NtRp1907
(dp1908
g11
S'ts_37_high'
p1909
sg1640
(lp1910
sg13
(lp1911
sg1653
F7.024487960929104
sg1654
S'ts_hybrid/ts_37_high/ts_37_high.cml'
p1912
sg1656
(lp1913
sg17
(lp1914
g627
ag631
ag639
ag643
ag647
asbag2
(g1647
g4
NtRp1915
(dp1916
g11
S'ts_65_high'
p1917
sg1640
(lp1918
sg13
(lp1919
sg1653
F7.1419295858758476
sg1654
S'ts_hybrid/ts_65_high/ts_65_high.cml'
p1920
sg1656
(lp1921
sg17
(lp1922
g655
ag659
ag667
ag671
ag675
asbag2
(g1647
g4
NtRp1923
(dp1924
g11
S'ts_64_high'
p1925
sg1640
(lp1926
sg13
(lp1927
sg1653
F7.7137183543167316
sg1654
S'ts_hybrid/ts_64_high/ts_64_high.cml'
p1928
sg1656
(lp1929
sg17
(lp1930
g683
ag687
ag695
ag699
ag703
asbag2
(g1647
g4
NtRp1931
(dp1932
g11
S'ts_39_high'
p1933
sg1640
(lp1934
sg13
(lp1935
sg1653
F12.01345324217298
sg1654
S'ts_hybrid/ts_39_high/ts_39_high.cml'
p1936
sg1656
(lp1937
sg17
(lp1938
g711
ag715
ag723
ag727
ag731
asbag2
(g1647
g4
NtRp1939
(dp1940
g11
S'ts_20_high'
p1941
sg1640
(lp1942
sg13
(lp1943
sg1653
F13.084702223053732
sg1654
S'ts_hybrid/ts_20_high/ts_20_high.cml'
p1944
sg1656
(lp1945
sg17
(lp1946
g739
ag743
ag751
ag755
ag759
asbag2
(g1647
g4
NtRp1947
(dp1948
g11
S'ts_70_high'
p1949
sg1640
(lp1950
sg13
(lp1951
sg1653
F14.770462628954609
sg1654
S'ts_hybrid/ts_70_high/ts_70_high.cml'
p1952
sg1656
(lp1953
sg17
(lp1954
g767
ag771
ag779
ag783
ag787
asbag2
(g1647
g4
NtRp1955
(dp1956
g11
S'ts_69_high'
p1957
sg1640
(lp1958
sg13
(lp1959
sg1653
F15.53798873860705
sg1654
S'ts_hybrid/ts_69_high/ts_69_high.cml'
p1960
sg1656
(lp1961
sg17
(lp1962
g795
ag799
ag807
ag811
ag815
asbag2
(g1647
g4
NtRp1963
(dp1964
g11
S'ts_66_high'
p1965
sg1640
(lp1966
sg13
(lp1967
sg1653
F15.803029859555238
sg1654
S'ts_hybrid/ts_66_high/ts_66_high.cml'
p1968
sg1656
(lp1969
sg17
(lp1970
g823
ag827
ag835
ag839
ag843
asbag2
(g1647
g4
NtRp1971
(dp1972
g11
S'ts_42_high'
p1973
sg1640
(lp1974
sg13
(lp1975
sg1653
F15.848457177321292
sg1654
S'ts_hybrid/ts_42_high/ts_42_high.cml'
p1976
sg1656
(lp1977
sg17
(lp1978
g851
ag855
ag863
ag867
ag871
asbag2
(g1647
g4
NtRp1979
(dp1980
g11
S'ts_67_high'
p1981
sg1640
(lp1982
sg13
(lp1983
sg1653
F15.962626669009216
sg1654
S'ts_hybrid/ts_67_high/ts_67_high.cml'
p1984
sg1656
(lp1985
sg17
(lp1986
g879
ag883
ag891
ag895
ag899
asbag2
(g1647
g4
NtRp1987
(dp1988
g11
S'ts_68_high'
p1989
sg1640
(lp1990
sg13
(lp1991
sg1653
F16.378275432790733
sg1654
S'ts_hybrid/ts_68_high/ts_68_high.cml'
p1992
sg1656
(lp1993
sg17
(lp1994
g907
ag911
ag919
ag923
ag927
asbag2
(g1647
g4
NtRp1995
(dp1996
g11
S'ts_36_high'
p1997
sg1640
(lp1998
sg13
(lp1999
sg1653
F17.172026071465702
sg1654
S'ts_hybrid/ts_36_high/ts_36_high.cml'
p2000
sg1656
(lp2001
sg17
(lp2002
g935
ag939
ag947
ag951
ag955
asbag2
(g1647
g4
NtRp2003
(dp2004
g11
S'ts_44_high'
p2005
sg1640
(lp2006
sg13
(lp2007
sg1653
F18.69116930302809
sg1654
S'ts_hybrid/ts_44_high/ts_44_high.cml'
p2008
sg1656
(lp2009
sg17
(lp2010
g963
ag967
ag975
ag979
ag983
asbag2
(g1647
g4
NtRp2011
(dp2012
g11
S'ts_73_high'
p2013
sg1640
(lp2014
sg13
(lp2015
sg1653
F23.223874535844185
sg1654
S'ts_hybrid/ts_73_high/ts_73_high.cml'
p2016
sg1656
(lp2017
sg17
(lp2018
g991
ag995
ag1003
ag1007
ag1011
asbag2
(g1647
g4
NtRp2019
(dp2020
g11
S'ts_71_high'
p2021
sg1640
(lp2022
sg13
(lp2023
sg1653
F24.224728041581848
sg1654
S'ts_hybrid/ts_71_high/ts_71_high.cml'
p2024
sg1656
(lp2025
sg17
(lp2026
g1019
ag1023
ag1031
ag1035
ag1039
asbag2
(g1647
g4
NtRp2027
(dp2028
g11
S'ts_75_high'
p2029
sg1640
(lp2030
sg13
(lp2031
sg1653
F24.418042628824487
sg1654
S'ts_hybrid/ts_75_high/ts_75_high.cml'
p2032
sg1656
(lp2033
sg17
(lp2034
g1047
ag1051
ag1059
ag1063
ag1067
asbag2
(g1647
g4
NtRp2035
(dp2036
g11
S'ts_72_high'
p2037
sg1640
(lp2038
sg13
(lp2039
sg1653
F25.163211692490627
sg1654
S'ts_hybrid/ts_72_high/ts_72_high.cml'
p2040
sg1656
(lp2041
sg17
(lp2042
g1075
ag1079
ag1087
ag1091
ag1095
asbag2
(g1647
g4
NtRp2043
(dp2044
g11
S'ts_74_high'
p2045
sg1640
(lp2046
sg13
(lp2047
sg1653
F25.254863907730421
sg1654
S'ts_hybrid/ts_74_high/ts_74_high.cml'
p2048
sg1656
(lp2049
sg17
(lp2050
g1103
ag1107
ag1115
ag1119
ag1123
asbag2
(g1647
g4
NtRp2051
(dp2052
g11
S'ts_50_high'
p2053
sg1640
(lp2054
sg13
(lp2055
sg1653
F25.457696423729978
sg1654
S'ts_hybrid/ts_50_high/ts_50_high.cml'
p2056
sg1656
(lp2057
sg17
(lp2058
g1131
ag1135
ag1143
ag1147
ag1151
asbag2
(g1647
g4
NtRp2059
(dp2060
g11
S'ts_48_high'
p2061
sg1640
(lp2062
sg13
(lp2063
sg1653
F26.857549122917067
sg1654
S'ts_hybrid/ts_48_high/ts_48_high.cml'
p2064
sg1656
(lp2065
sg17
(lp2066
g1159
ag1163
ag1171
ag1175
ag1179
asbag2
(g1647
g4
NtRp2067
(dp2068
g11
S'ts_47_high'
p2069
sg1640
(lp2070
sg13
(lp2071
sg1653
F26.922595246310486
sg1654
S'ts_hybrid/ts_47_high/ts_47_high.cml'
p2072
sg1656
(lp2073
sg17
(lp2074
g1187
ag1191
ag1199
ag1203
ag1207
asbag2
(g1647
g4
NtRp2075
(dp2076
g11
S'ts_55_high'
p2077
sg1640
(lp2078
sg13
(lp2079
sg1653
F32.381256662073653
sg1654
S'ts_hybrid/ts_55_high/ts_55_high.cml'
p2080
sg1656
(lp2081
sg17
(lp2082
g1215
ag1219
ag1227
ag1231
ag1235
asbag2
(g1647
g4
NtRp2083
(dp2084
g11
S'ts_52_high'
p2085
sg1640
(lp2086
sg13
(lp2087
sg1653
F33.087004861289167
sg1654
S'ts_hybrid/ts_52_high/ts_52_high.cml'
p2088
sg1656
(lp2089
sg17
(lp2090
g1243
ag1247
ag1255
ag1259
ag1263
asbag2
(g1647
g4
NtRp2091
(dp2092
g11
S'ts_78_high'
p2093
sg1640
(lp2094
sg13
(lp2095
sg1653
F33.671440493632858
sg1654
S'ts_hybrid/ts_78_high/ts_78_high.cml'
p2096
sg1656
(lp2097
sg17
(lp2098
g1271
ag1275
ag1283
ag1287
ag1291
asbag2
(g1647
g4
NtRp2099
(dp2100
g11
S'ts_77_high'
p2101
sg1640
(lp2102
sg13
(lp2103
sg1653
F34.061908692045165
sg1654
S'ts_hybrid/ts_77_high/ts_77_high.cml'
p2104
sg1656
(lp2105
sg17
(lp2106
g1299
ag1303
ag1311
ag1315
ag1319
asbag2
(g1647
g4
NtRp2107
(dp2108
g11
S'ts_80_high'
p2109
sg1640
(lp2110
sg13
(lp2111
sg1653
F34.266156752639191
sg1654
S'ts_hybrid/ts_80_high/ts_80_high.cml'
p2112
sg1656
(lp2113
sg17
(lp2114
g1327
ag1331
ag1339
ag1343
ag1347
asbag2
(g1647
g4
NtRp2115
(dp2116
g11
S'ts_79_high'
p2117
sg1640
(lp2118
sg13
(lp2119
sg1653
F34.77083126535998
sg1654
S'ts_hybrid/ts_79_high/ts_79_high.cml'
p2120
sg1656
(lp2121
sg17
(lp2122
g1355
ag1359
ag1367
ag1371
ag1375
asbag2
(g1647
g4
NtRp2123
(dp2124
g11
S'ts_76_high'
p2125
sg1640
(lp2126
sg13
(lp2127
sg1653
F34.828737432176624
sg1654
S'ts_hybrid/ts_76_high/ts_76_high.cml'
p2128
sg1656
(lp2129
sg17
(lp2130
g1383
ag1387
ag1395
ag1399
ag1403
asbag2
(g1647
g4
NtRp2131
(dp2132
g11
S'ts_81_high'
p2133
sg1640
(lp2134
sg13
(lp2135
sg1653
F39.227888044633026
sg1654
S'ts_hybrid/ts_81_high/ts_81_high.cml'
p2136
sg1656
(lp2137
sg17
(lp2138
g1411
ag1415
ag1423
ag1427
ag1431
asbag2
(g1647
g4
NtRp2139
(dp2140
g11
S'ts_85_high'
p2141
sg1640
(lp2142
sg13
(lp2143
sg1653
F39.832424499019503
sg1654
S'ts_hybrid/ts_85_high/ts_85_high.cml'
p2144
sg1656
(lp2145
sg17
(lp2146
g1439
ag1443
ag1451
ag1455
ag1459
asbag2
(g1647
g4
NtRp2147
(dp2148
g11
S'ts_57_high'
p2149
sg1640
(lp2150
sg13
(lp2151
sg1653
F40.055102123547151
sg1654
S'ts_hybrid/ts_57_high/ts_57_high.cml'
p2152
sg1656
(lp2153
sg17
(lp2154
g1467
ag1471
ag1479
ag1483
ag1487
asbag2
(g1647
g4
NtRp2155
(dp2156
g11
S'ts_84_high'
p2157
sg1640
(lp2158
sg13
(lp2159
sg1653
F40.552987254049661
sg1654
S'ts_hybrid/ts_84_high/ts_84_high.cml'
p2160
sg1656
(lp2161
sg17
(lp2162
g1495
ag1499
ag1507
ag1511
ag1515
asbag2
(g1647
g4
NtRp2163
(dp2164
g11
S'ts_83_high'
p2165
sg1640
(lp2166
sg13
(lp2167
sg1653
F41.460192971556637
sg1654
S'ts_hybrid/ts_83_high/ts_83_high.cml'
p2168
sg1656
(lp2169
sg17
(lp2170
g1523
ag1527
ag1535
ag1539
ag1543
asbag2
(g1647
g4
NtRp2171
(dp2172
g11
S'ts_82_high'
p2173
sg1640
(lp2174
sg13
(lp2175
sg1653
F41.64788810839238
sg1654
S'ts_hybrid/ts_82_high/ts_82_high.cml'
p2176
sg1656
(lp2177
sg17
(lp2178
g1551
ag1555
ag1563
ag1567
ag1571
asbag2
(g1647
g4
NtRp2179
(dp2180
g11
S'ts_59_high'
p2181
sg1640
(lp2182
sg13
(lp2183
sg1653
F42.791992609552949
sg1654
S'ts_hybrid/ts_59_high/ts_59_high.cml'
p2184
sg1656
(lp2185
sg17
(lp2186
g1579
ag1583
ag1591
ag1595
ag1599
asbag2
(g1647
g4
NtRp2187
(dp2188
g11
S'ts_58_high'
p2189
sg1640
(lp2190
sg13
(lp2191
sg1653
F42.838777406724518
sg1654
S'ts_hybrid/ts_58_high/ts_58_high.cml'
p2192
sg1656
(lp2193
sg17
(lp2194
g1607
ag1611
ag1619
ag1623
ag1627
asbasg1656
(lp2195
sba(dp2196
S'Cs'
p2197
(lp2198
g2
(g1647
g4
NtRp2199
(dp2200
g11
g1650
sg13
(lp2201
sg1653
I0
sg17
(lp2202
g2
(g19
g4
NtRp2203
(dp2204
g22
I1
sg23
F9.6891195519362912e-06
sg24
F2.9834567118677896e-06
sg25
F-3.5099490727856352e-07
sg26
I1
sg27
g28
sg29
I352
sS'y'
F3.093521
sS'x'
F2.8033429999999999
sS'z'
F2.5038079999999998
sg30
g32
sg46
g47
sbasg1640
(lp2205
sg1654
g1655
sg1656
(lp2206
sbag2
(g1647
g4
NtRp2207
(dp2208
g11
g1661
sg13
(lp2209
sg1653
F1.5624558088203724e-07
sg17
(lp2210
g2
(g19
g4
NtRp2211
(dp2212
g22
I1
sg23
F-5.1878470248098499e-06
sg24
F-3.0474895665740144e-06
sg25
F-4.7479175971059732e-06
sg26
I1
sg27
g50
sg29
I352
sS'y'
F3.252548
sS'x'
F2.8534220000000001
sS'z'
F2.4675699999999998
sg30
g51
sg46
g55
sbasg1640
(lp2213
sg1654
g1664
sg1656
(lp2214
sbag2
(g1647
g4
NtRp2215
(dp2216
g11
g1669
sg13
(lp2217
sg1653
F2.7107728820627335e-07
sg17
(lp2218
g2
(g19
g4
NtRp2219
(dp2220
g22
I1
sg23
F-8.6966103039898127e-06
sg24
F-2.6621066447309969e-06
sg25
F-8.9254684698842823e-06
sg26
I1
sg27
g58
sg29
I352
sS'y'
F3.2160410000000001
sS'x'
F2.6626259999999999
sS'z'
F2.5145810000000002
sg30
g59
sg46
g63
sbasg1640
(lp2221
sg1654
g1672
sg1656
(lp2222
sbag2
(g1647
g4
NtRp2223
(dp2224
g11
g1677
sg13
(lp2225
sg1653
F5.4529344350461663e-07
sg17
(lp2226
g2
(g19
g4
NtRp2227
(dp2228
g22
I1
sg23
F1.2344111435033265e-06
sg24
F2.4344342724421988e-06
sg25
F6.9297778315402883e-06
sg26
I1
sg27
g66
sg29
I352
sS'y'
F3.2665410000000001
sS'x'
F2.8546
sS'z'
F2.4970850000000002
sg30
g67
sg46
g71
sbasg1640
(lp2229
sg1654
g1680
sg1656
(lp2230
sbag2
(g1647
g4
NtRp2231
(dp2232
g11
g1685
sg13
(lp2233
sg1653
F1.1972593233412989e-06
sg17
(lp2234
g2
(g19
g4
NtRp2235
(dp2236
g22
I1
sg23
F-1.2880090144796476e-05
sg24
F-8.9290258507012949e-06
sg25
F-2.9028227466821738e-06
sg26
I1
sg27
g74
sg29
I352
sS'y'
F3.0996869999999999
sS'x'
F2.6639309999999998
sS'z'
F2.5423840000000002
sg30
g75
sg46
g79
sbasg1640
(lp2237
sg1654
g1688
sg1656
(lp2238
sbag2
(g1647
g4
NtRp2239
(dp2240
g11
g1693
sg13
(lp2241
sg1653
F1.2932667453491721e-06
sg17
(lp2242
g2
(g19
g4
NtRp2243
(dp2244
g22
I1
sg23
F2.1368000774188224e-06
sg24
F2.2198056298157803e-06
sg25
F1.8747396905655705e-06
sg26
I1
sg27
g82
sg29
I352
sS'y'
F3.0948220000000002
sS'x'
F2.7893829999999999
sS'z'
F2.5325479999999998
sg30
g83
sg46
g87
sbasg1640
(lp2245
sg1654
g1696
sg1656
(lp2246
sbag2
(g1647
g4
NtRp2247
(dp2248
g11
g1701
sg13
(lp2249
sg1653
F1.3986863100152271e-06
sg17
(lp2250
g2
(g19
g4
NtRp2251
(dp2252
g22
I1
sg23
F4.043556195337505e-07
sg24
F-3.0972928980121886e-06
sg25
F-4.4194527683351561e-06
sg26
I1
sg27
g90
sg29
I352
sS'y'
F3.1900339999999998
sS'x'
F2.818654
sS'z'
F2.2864200000000001
sg30
g91
sg46
g95
sbasg1640
(lp2253
sg1654
g1704
sg1656
(lp2254
sbag2
(g1647
g4
NtRp2255
(dp2256
g11
g1709
sg13
(lp2257
sg1653
F1.5298321007057755e-06
sg17
(lp2258
g2
(g19
g4
NtRp2259
(dp2260
g22
I1
sg23
F4.8498958471936648e-07
sg24
F-3.5063916919686229e-06
sg25
F-5.4688801093538345e-06
sg26
I1
sg27
g98
sg29
I352
sS'y'
F3.096473
sS'x'
F2.6916950000000002
sS'z'
F2.3722430000000001
sg30
g99
sg46
g103
sbasg1640
(lp2261
sg1654
g1712
sg1656
(lp2262
sbag2
(g1647
g4
NtRp2263
(dp2264
g11
g1717
sg13
(lp2265
sg1653
F1.6584676894462742e-06
sg17
(lp2266
g2
(g19
g4
NtRp2267
(dp2268
g22
I1
sg23
F4.5581906201986429e-06
sg24
F-3.0000578223471814e-06
sg25
F-5.3420001935470554e-06
sg26
I1
sg27
g106
sg29
I352
sS'y'
F3.19435
sS'x'
F2.725482
sS'z'
F2.3307920000000002
sg30
g107
sg46
g111
sbasg1640
(lp2269
sg1654
g1720
sg1656
(lp2270
sbag2
(g1647
g4
NtRp2271
(dp2272
g11
g1725
sg13
(lp2273
sg1653
F1.7921259113958874e-06
sg17
(lp2274
g2
(g19
g4
NtRp2275
(dp2276
g22
I1
sg23
F6.2017005576584034e-06
sg24
F4.9566172717040381e-07
sg25
F2.0822535715579645e-06
sg26
I1
sg27
g114
sg29
I352
sS'y'
F3.0313469999999998
sS'x'
F2.5593560000000002
sS'z'
F2.2474400000000001
sg30
g115
sg46
g119
sbasg1640
(lp2277
sg1654
g1728
sg1656
(lp2278
sbag2
(g1647
g4
NtRp2279
(dp2280
g11
g1733
sg13
(lp2281
sg1653
F1.7921259113958874e-06
sg17
(lp2282
g2
(g19
g4
NtRp2283
(dp2284
g22
I1
sg23
F6.2017005576584034e-06
sg24
F4.9566172717040381e-07
sg25
F2.0822535715579645e-06
sg26
I1
sg27
g122
sg29
I352
sS'y'
F3.0313469999999998
sS'x'
F2.5593560000000002
sS'z'
F2.2474400000000001
sg30
g123
sg46
g127
sbasg1640
(lp2285
sg1654
g1736
sg1656
(lp2286
sbag2
(g1647
g4
NtRp2287
(dp2288
g11
g1741
sg13
(lp2289
sg1653
F3.5145970626414008e-06
sg17
(lp2290
g2
(g19
g4
NtRp2291
(dp2292
g22
I1
sg23
F5.5945742315549404e-06
sg24
F2.9158664763445529e-06
sg25
F5.9657276301299077e-06
sg26
I1
sg27
g130
sg29
I352
sS'y'
F3.0603289999999999
sS'x'
F2.8394780000000002
sS'z'
F2.3665910000000001
sg30
g131
sg46
g135
sbasg1640
(lp2293
sg1654
g1744
sg1656
(lp2294
sbasS'Cl Cl Cl Pb'
p2295
(lp2296
g2
(g1647
g4
NtRp2297
(dp2298
g11
g1749
sg13
(lp2299
sg1653
I0
sg17
(lp2300
g2
(g19
g4
NtRp2301
(dp2302
g22
I1
sg23
F-0.523020703492174
sg24
F-0.60408069467546732
sg25
F-0.44329702699747442
sg26
I1
sg27
g138
sg29
I907
sS'y'
F0.42779699999999998
sS'x'
F0.40841899999999998
sS'z'
F0.43427300000000002
sg30
g139
sg46
g142
sbag2
(g19
g4
NtRp2303
(dp2304
g22
I2
sg23
F0.23282398027522491
sg24
F-0.10194837283200227
sg25
F-0.093688161848152249
sg26
I1
sg27
g145
sg29
I344
sS'y'
F0.343918
sS'x'
F2.962167
sS'z'
F0.064477999999999994
sg30
g146
sg46
g150
sbag2
(g19
g4
NtRp2305
(dp2306
g22
I3
sg23
F-0.097982624855688052
sg24
F0.21915451207030778
sg25
F-0.10435553503730764
sg26
I1
sg27
g153
sg29
I344
sS'y'
F2.9169700000000001
sS'x'
F-0.045852999999999998
sS'z'
F-0.07954
sg30
g146
sg46
g154
sbag2
(g19
g4
NtRp2307
(dp2308
g22
I4
sg23
F-0.073766995283987224
sg24
F-0.067386468750038411
sg25
F0.24929670250934324
sg26
I1
sg27
g157
sg29
I344
sS'y'
F0.47215800000000002
sS'x'
F0.32240999999999997
sS'z'
F3.01416
sg30
g146
sg46
g158
sbasg1640
(lp2309
sg1654
g1752
sg1656
(lp2310
sbag2
(g1647
g4
NtRp2311
(dp2312
g11
g1757
sg13
(lp2313
sg1653
F1.1334942472263159
sg17
(lp2314
g2
(g19
g4
NtRp2315
(dp2316
g22
I1
sg23
F6.1306790967140659
sg24
F11.975518781465615
sg25
F2.1666948200056066
sg26
I1
sg27
g161
sg29
I907
sS'y'
F0.330785
sS'x'
F0.74711099999999997
sS'z'
F0.74954500000000002
sg30
g139
sg46
g162
sbag2
(g19
g4
NtRp2317
(dp2318
g22
I2
sg23
F-8.1280888049498685
sg24
F-3.6892972109187046
sg25
F-4.9254815510487626
sg26
I1
sg27
g165
sg29
I344
sS'y'
F1.007253
sS'x'
F2.534351
sS'z'
F2.5807380000000002
sg30
g166
sg46
g170
sbag2
(g19
g4
NtRp2319
(dp2320
g22
I3
sg23
F-4.7688491618004205
sg24
F-6.0059024052387624
sg25
F4.2536847761320686
sg26
I1
sg27
g173
sg29
I344
sS'y'
F1.992192
sS'x'
F1.6708430000000001
sS'z'
F-1.064694
sg30
g166
sg46
g174
sbag2
(g19
g4
NtRp2321
(dp2322
g22
I4
sg23
F6.7136240128776992
sg24
F-3.0032261786701877
sg25
F-1.6795902443248174
sg26
I1
sg27
g177
sg29
I344
sS'y'
F1.5131509999999999
sS'x'
F-1.4820660000000001
sS'z'
F1.512116
sg30
g166
sg46
g178
sbasg1640
(lp2323
sg1654
g1760
sg1656
(lp2324
sbag2
(g1647
g4
NtRp2325
(dp2326
g11
g1765
sg13
(lp2327
sg1653
F1.5342377937255418
sg17
(lp2328
g2
(g19
g4
NtRp2329
(dp2330
g22
I1
sg23
F9.2460499376223062
sg24
F-20.572652134170013
sg25
F14.990540881558521
sg26
I1
sg27
g181
sg29
I907
sS'y'
F0.76062700000000005
sS'x'
F1.3619520000000001
sS'z'
F0.77932400000000002
sg30
g139
sg46
g182
sbag2
(g19
g4
NtRp2331
(dp2332
g22
I2
sg23
F-6.347748925521719
sg24
F-1.2066595971646694
sg25
F-3.0006003620529644
sg26
I1
sg27
g185
sg29
I344
sS'y'
F-0.26606200000000002
sS'x'
F-0.89040299999999994
sS'z'
F0.165377
sg30
g186
sg46
g190
sbag2
(g19
g4
NtRp2333
(dp2334
g22
I3
sg23
F1.1272197368121064
sg24
F0.44660327332991628
sg25
F-3.9692697738366958
sg26
I1
sg27
g193
sg29
I344
sS'y'
F1.1891510000000001
sS'x'
F0.89559500000000003
sS'z'
F3.3288319999999998
sg30
g186
sg46
g194
sbag2
(g19
g4
NtRp2335
(dp2336
g22
I4
sg23
F-3.3165250594051772
sg24
F20.77197638617135
sg25
F-8.154678845107485
sg26
I1
sg27
g197
sg29
I344
sS'y'
F3.0483440000000002
sS'x'
F1.211279
sS'z'
F-0.14433299999999999
sg30
g186
sg46
g198
sbasg1640
(lp2337
sg1654
g1768
sg1656
(lp2338
sbag2
(g1647
g4
NtRp2339
(dp2340
g11
g1773
sg13
(lp2341
sg1653
F1.8605717808298896
sg17
(lp2342
g2
(g19
g4
NtRp2343
(dp2344
g22
I1
sg23
F-11.908308023612065
sg24
F1.5137578789442598
sg25
F20.366831412293347
sg26
I1
sg27
g201
sg29
I907
sS'y'
F1.4470609999999999
sS'x'
F1.087774
sS'z'
F0.63206200000000001
sg30
g139
sg46
g202
sbag2
(g19
g4
NtRp2345
(dp2346
g22
I2
sg23
F6.733541235492333
sg24
F-7.9645005112794722
sg25
F-5.0382708604941877
sg26
I1
sg27
g205
sg29
I344
sS'y'
F-0.29819000000000001
sS'x'
F2.7010209999999999
sS'z'
F-0.173375
sg30
g206
sg46
g210
sbag2
(g19
g4
NtRp2347
(dp2348
g22
I3
sg23
F3.6271422003107054
sg24
F6.6559328985823756
sg25
F-12.69368365204541
sg26
I1
sg27
g213
sg29
I344
sS'y'
F0.54622099999999996
sS'x'
F0.75119400000000003
sS'z'
F3.1597529999999998
sg30
g206
sg46
g214
sbag2
(g19
g4
NtRp2349
(dp2350
g22
I4
sg23
F1.6973003077984388
sg24
F0.65262246741133023
sg25
F-2.7444211249151249
sg26
I1
sg27
g217
sg29
I344
sS'y'
F0.54670200000000002
sS'x'
F-1.1871370000000001
sS'z'
F-0.18879499999999999
sg30
g206
sg46
g218
sbasg1640
(lp2351
sg1654
g1776
sg1656
(lp2352
sbag2
(g1647
g4
NtRp2353
(dp2354
g11
g1781
sg13
(lp2355
sg1653
F2.0512554303131592
sg17
(lp2356
g2
(g19
g4
NtRp2357
(dp2358
g22
I1
sg23
F11.143577846848816
sg24
F-22.972860288448743
sg25
F-5.1402216393014166
sg26
I1
sg27
g221
sg29
I907
sS'y'
F0.84802699999999998
sS'x'
F1.2165090000000001
sS'z'
F1.1881029999999999
sg30
g139
sg46
g222
sbag2
(g19
g4
NtRp2359
(dp2360
g22
I2
sg23
F0.61362892653173295
sg24
F10.438174674408641
sg25
F-5.8486826260130904
sg26
I1
sg27
g225
sg29
I344
sS'y'
F3.0687549999999999
sS'x'
F1.7706120000000001
sS'z'
F0.127558
sg30
g226
sg46
g230
sbag2
(g19
g4
NtRp2361
(dp2362
g22
I3
sg23
F2.2998444783929308
sg24
F8.5978035881519901
sg25
F8.6074009581094817
sg26
I1
sg27
g233
sg29
I344
sS'y'
F-0.85550800000000005
sS'x'
F0.94629700000000005
sS'z'
F-0.89955200000000002
sg30
g226
sg46
g234
sbag2
(g19
g4
NtRp2363
(dp2364
g22
I4
sg23
F-13.45694094389891
sg24
F3.6190114317426443
sg25
F3.0013947987086071
sg26
I1
sg27
g237
sg29
I344
sS'y'
F1.0564169999999999
sS'x'
F-1.2148380000000001
sS'z'
F1.7401420000000001
sg30
g226
sg46
g238
sbasg1640
(lp2365
sg1654
g1784
sg1656
(lp2366
sbag2
(g1647
g4
NtRp2367
(dp2368
g11
g1789
sg13
(lp2369
sg1653
F3.4497570605173995
sg17
(lp2370
g2
(g19
g4
NtRp2371
(dp2372
g22
I1
sg23
F18.158211125729
sg24
F22.182330385179153
sg25
F15.250883486291826
sg26
I1
sg27
g241
sg29
I907
sS'y'
F0.28872999999999999
sS'x'
F0.29615999999999998
sS'z'
F0.34003299999999997
sg30
g139
sg46
g242
sbag2
(g19
g4
NtRp2373
(dp2374
g22
I2
sg23
F-10.948908581799712
sg24
F-5.3132693121274119
sg25
F-2.7882859936755451
sg26
I1
sg27
g245
sg29
I344
sS'y'
F0.429641
sS'x'
F2.9197389999999999
sS'z'
F0.132078
sg30
g246
sg46
g250
sbag2
(g19
g4
NtRp2375
(dp2376
g22
I3
sg23
F-3.4663680592985409
sg24
F-11.650604975286496
sg25
F-2.552330422608057
sg26
I1
sg27
g253
sg29
I344
sS'y'
F2.8890069999999999
sS'x'
F0.042340000000000003
sS'z'
F0.00091600000000000004
sg30
g246
sg46
g254
sbag2
(g19
g4
NtRp2377
(dp2378
g22
I4
sg23
F-4.215349867709631
sg24
F-5.6564744412045407
sg25
F-10.280724563075621
sg26
I1
sg27
g257
sg29
I344
sS'y'
F0.55346499999999998
sS'x'
F0.388905
sS'z'
F2.9603440000000001
sg30
g246
sg46
g258
sbasg1640
(lp2379
sg1654
g1792
sg1656
(lp2380
sbag2
(g1647
g4
NtRp2381
(dp2382
g11
g1797
sg13
(lp2383
sg1653
F6.7017447751434176
sg17
(lp2384
g2
(g19
g4
NtRp2385
(dp2386
g22
I1
sg23
F21.293497814917082
sg24
F-30.460910011599232
sg25
F18.916669668570901
sg26
I1
sg27
g261
sg29
I907
sS'y'
F0.93635400000000002
sS'x'
F0.16390199999999999
sS'z'
F0.67796000000000001
sg30
g139
sg46
g262
sbag2
(g19
g4
NtRp2387
(dp2388
g22
I2
sg23
F-17.865119440391183
sg24
F12.269438947593494
sg25
F1.988304870696155
sg26
I1
sg27
g265
sg29
I344
sS'y'
F-1.076973
sS'x'
F1.925548
sS'z'
F-0.013798
sg30
g266
sg46
g270
sbag2
(g19
g4
NtRp2389
(dp2390
g22
I3
sg23
F6.7352243580509832
sg24
F15.421759012904605
sg25
F-7.4725445302362292
sg26
I1
sg27
g273
sg29
I344
sS'y'
F2.64229
sS'x'
F1.6416170000000001
sS'z'
F-0.29861799999999999
sg30
g266
sg46
g274
sbag2
(g19
g4
NtRp2391
(dp2392
g22
I4
sg23
F-11.003184788379743
sg24
F2.6329586390662727
sg25
F-13.496516897980076
sg26
I1
sg27
g277
sg29
I344
sS'y'
F0.95920300000000003
sS'x'
F1.2083710000000001
sS'z'
F3.1697959999999998
sg30
g266
sg46
g278
sbasg1640
(lp2393
sg1654
g1800
sg1656
(lp2394
sbag2
(g1647
g4
NtRp2395
(dp2396
g11
g1805
sg13
(lp2397
sg1653
F6.8977900650410229
sg17
(lp2398
g2
(g19
g4
NtRp2399
(dp2400
g22
I1
sg23
F-0.72319985102192941
sg24
F19.091159951810095
sg25
F-38.892213037302291
sg26
I1
sg27
g281
sg29
I907
sS'y'
F0.39965200000000001
sS'x'
F0.74173599999999995
sS'z'
F1.2871269999999999
sg30
g139
sg46
g282
sbag2
(g19
g4
NtRp2401
(dp2402
g22
I2
sg23
F-8.4017351577958124
sg24
F-2.8564598127786383
sg25
F23.745270084373253
sg26
I1
sg27
g285
sg29
I344
sS'y'
F0.135687
sS'x'
F1.9768049999999999
sS'z'
F-1.224275
sg30
g286
sg46
g290
sbag2
(g19
g4
NtRp2403
(dp2404
g22
I3
sg23
F9.453738190750208
sg24
F-11.682249527092727
sg25
F11.706128175465981
sg26
I1
sg27
g293
sg29
I344
sS'y'
F1.715163
sS'x'
F-1.2930349999999999
sS'z'
F0.124774
sg30
g286
sg46
g294
sbag2
(g19
g4
NtRp2405
(dp2406
g22
I4
sg23
F-0.35034824422205973
sg24
F-5.2381203016692677
sg25
F3.7550634267012715
sg26
I1
sg27
g297
sg29
I344
sS'y'
F2.574249
sS'x'
F1.952286
sS'z'
F1.894733
sg30
g286
sg46
g298
sbasg1640
(lp2407
sg1654
g1808
sg1656
(lp2408
sbag2
(g1647
g4
NtRp2409
(dp2410
g11
g1813
sg13
(lp2411
sg1653
F8.4034672095055889
sg17
(lp2412
g2
(g19
g4
NtRp2413
(dp2414
g22
I1
sg23
F11.69537695243938
sg24
F-38.459701177859166
sg25
F18.039687389554167
sg26
I1
sg27
g301
sg29
I907
sS'y'
F1.331609
sS'x'
F0.44837399999999999
sS'z'
F0.37651000000000001
sg30
g139
sg46
g302
sbag2
(g19
g4
NtRp2415
(dp2416
g22
I2
sg23
F-3.4360956497489048
sg24
F6.2499167707598282
sg25
F-3.8156778850874171
sg26
I1
sg27
g305
sg29
I344
sS'y'
F1.2871109999999999
sS'x'
F3.006259
sS'z'
F0.394839
sg30
g306
sg46
g310
sbag2
(g19
g4
NtRp2417
(dp2418
g22
I3
sg23
F-3.4755948960275127
sg24
F6.0546132424979549
sg25
F-12.195665252575635
sg26
I1
sg27
g313
sg29
I344
sS'y'
F1.139591
sS'x'
F0.32121699999999997
sS'z'
F2.9960209999999998
sg30
g306
sg46
g314
sbag2
(g19
g4
NtRp2419
(dp2420
g22
I4
sg23
F-5.0492533014159573
sg24
F26.547317958706788
sg25
F-2.5666897570737066
sg26
I1
sg27
g317
sg29
I344
sS'y'
F-1.5237529999999999
sS'x'
F0.45615299999999998
sS'z'
F0.13875299999999999
sg30
g306
sg46
g318
sbasg1640
(lp2421
sg1654
g1816
sg1656
(lp2422
sbasS'Cl Cl Cl Cs Pb'
p2423
(lp2424
g2
(g1647
g4
NtRp2425
(dp2426
g11
g1821
sg13
(lp2427
sg1653
I0
sg17
(lp2428
g2
(g19
g4
NtRp2429
(dp2430
g22
I1
sg23
F-0.40720462029446486
sg24
F-0.54486640122040664
sg25
F-0.44008522438254988
sg26
I1
sg27
g321
sg29
I907
sS'y'
F0.30095499999999997
sS'x'
F0.30466100000000002
sS'z'
F0.345748
sg30
g139
sg46
g322
sbag2
(g19
g4
NtRp2431
(dp2432
g22
I2
sg23
F-0.01148112642263421
sg24
F-0.31355180813949129
sg25
F-0.32246813888385023
sg26
I1
sg27
g325
sg29
I344
sS'y'
F0.438917
sS'x'
F2.889561
sS'z'
F0.15013699999999999
sg30
g326
sg46
g330
sbag2
(g19
g4
NtRp2433
(dp2434
g22
I3
sg23
F-0.28809793019617913
sg24
F-0.083282410302216003
sg25
F-0.25979690488755836
sg26
I1
sg27
g333
sg29
I344
sS'y'
F2.8649830000000001
sS'x'
F0.060204000000000001
sS'z'
F0.020178999999999999
sg30
g326
sg46
g334
sbag2
(g19
g4
NtRp2435
(dp2436
g22
I4
sg23
F-0.20230093901750731
sg24
F-0.27325730463606601
sg25
F-0.024023293848861035
sg26
I1
sg27
g337
sg29
I344
sS'y'
F0.56421299999999996
sS'x'
F0.40487200000000001
sS'z'
F2.9263690000000002
sg30
g326
sg46
g338
sbag2
(g19
g4
NtRp2437
(dp2438
g22
I5
sg23
F-0.41638267110291227
sg24
F-0.54170494265880431
sg25
F-0.4437051475117062
sg26
I1
sg27
g341
sg29
I352
sS'y'
F3.0231240000000001
sS'x'
F2.5472009999999998
sS'z'
F2.2383769999999998
sg30
g342
sg46
g346
sbasg1640
(lp2439
sg1654
g1824
sg1656
(lp2440
sbag2
(g1647
g4
NtRp2441
(dp2442
g11
g1829
sg13
(lp2443
sg1653
F0.43088491824173347
sg17
(lp2444
g2
(g19
g4
NtRp2445
(dp2446
g22
I1
sg23
F5.5779668838011842
sg24
F6.8517854848574835
sg25
F4.5548398911906709
sg26
I1
sg27
g349
sg29
I907
sS'y'
F0.28872999999999999
sS'x'
F0.29615999999999998
sS'z'
F0.34003299999999997
sg30
g139
sg46
g350
sbag2
(g19
g4
NtRp2447
(dp2448
g22
I2
sg23
F-6.6401820863095962
sg24
F0.12342022185279433
sg25
F0.99231056229888037
sg26
I1
sg27
g353
sg29
I344
sS'y'
F0.429641
sS'x'
F2.9197389999999999
sS'z'
F0.132078
sg30
g354
sg46
g358
sbag2
(g19
g4
NtRp2449
(dp2450
g22
I3
sg23
F1.1858196883869729
sg24
F-6.4760253777311485
sg25
F1.4430593143419224
sg26
I1
sg27
g361
sg29
I344
sS'y'
F2.8890069999999999
sS'x'
F0.042340000000000003
sS'z'
F0.00091600000000000004
sg30
g354
sg46
g362
sbag2
(g19
g4
NtRp2451
(dp2452
g22
I4
sg23
F0.38895605355649399
sg24
F-0.10259411096949358
sg25
F-6.7947380015444141
sg26
I1
sg27
g365
sg29
I344
sS'y'
F0.55346499999999998
sS'x'
F0.388905
sS'z'
F2.9603440000000001
sg30
g354
sg46
g366
sbag2
(g19
g4
NtRp2453
(dp2454
g22
I5
sg23
F-1.7568293974393778
sg24
F-1.9775373465648587
sg25
F-1.4669279463165892
sg26
I1
sg27
g369
sg29
I352
sS'y'
F3.0313469999999998
sS'x'
F2.5593560000000002
sS'z'
F2.2474400000000001
sg30
g370
sg46
g374
sbasg1640
(lp2455
sg1654
g1832
sg1656
(lp2456
sbag2
(g1647
g4
NtRp2457
(dp2458
g11
g1837
sg13
(lp2459
sg1653
F3.3062442705955166
sg17
(lp2460
g2
(g19
g4
NtRp2461
(dp2462
g22
I1
sg23
F8.2860310988916197
sg24
F-8.8114354503018966
sg25
F-23.513888805817334
sg26
I1
sg27
g377
sg29
I907
sS'y'
F2.3809439999999999
sS'x'
F0.45100400000000002
sS'z'
F2.6681319999999999
sg30
g139
sg46
g378
sbag2
(g19
g4
NtRp2463
(dp2464
g22
I2
sg23
F-3.2376616666850424
sg24
F2.5798239888756576
sg25
F16.537055656672955
sg26
I1
sg27
g381
sg29
I344
sS'y'
F3.079904
sS'x'
F0.445353
sS'z'
F0.020048
sg30
g382
sg46
g386
sbag2
(g19
g4
NtRp2465
(dp2466
g22
I3
sg23
F-7.9166408805447945
sg24
F0.68993364464018436
sg25
F-0.25183478225768274
sg26
I1
sg27
g389
sg29
I344
sS'y'
F2.2536909999999999
sS'x'
F3.05721
sS'z'
F2.667862
sg30
g382
sg46
g390
sbag2
(g19
g4
NtRp2467
(dp2468
g22
I4
sg23
F-5.6220208961280571
sg24
F6.5645749824372972
sg25
F11.71589679655021
sg26
I1
sg27
g393
sg29
I344
sS'y'
F-0.122519
sS'x'
F0.33387
sS'z'
F1.734747
sg30
g382
sg46
g394
sbag2
(g19
g4
NtRp2469
(dp2470
g22
I5
sg23
F9.1199867513909592
sg24
F-1.5222774882083179
sg25
F-5.1381859115277715
sg26
I1
sg27
g397
sg29
I352
sS'y'
F0.70491899999999996
sS'x'
F2.5268969999999999
sS'z'
F-0.35931999999999997
sg30
g398
sg46
g402
sbasg1640
(lp2471
sg1654
g1840
sg1656
(lp2472
sbag2
(g1647
g4
NtRp2473
(dp2474
g11
g1845
sg13
(lp2475
sg1653
F4.4295653917927433
sg17
(lp2476
g2
(g19
g4
NtRp2477
(dp2478
g22
I1
sg23
F-7.7966995150706513
sg24
F40.844902371751338
sg25
F18.662897623283207
sg26
I1
sg27
g405
sg29
I907
sS'y'
F2.8216290000000002
sS'x'
F0.048063000000000002
sS'z'
F1.121469
sg30
g139
sg46
g406
sbag2
(g19
g4
NtRp2479
(dp2480
g22
I2
sg23
F9.0648719741030757
sg24
F-29.345355898836871
sg25
F-18.41018215211459
sg26
I1
sg27
g409
sg29
I344
sS'y'
F0.90581699999999998
sS'x'
F0.19925599999999999
sS'z'
F-0.35703600000000002
sg30
g410
sg46
g414
sbag2
(g19
g4
NtRp2481
(dp2482
g22
I3
sg23
F-1.8051274445291181
sg24
F-4.6426225530517193
sg25
F-3.7240075680595432
sg26
I1
sg27
g417
sg29
I344
sS'y'
F3.6711119999999999
sS'x'
F2.5539719999999999
sS'z'
F1.0515890000000001
sg30
g410
sg46
g418
sbag2
(g19
g4
NtRp2483
(dp2484
g22
I4
sg23
F0.35801561294958023
sg24
F-6.7800556663869287
sg25
F4.5188867891488682
sg26
I1
sg27
g421
sg29
I344
sS'y'
F1.607165
sS'x'
F0.61913700000000005
sS'z'
F3.3114110000000001
sg30
g410
sg46
g422
sbag2
(g19
g4
NtRp2485
(dp2486
g22
I5
sg23
F0.25126596655139122
sg24
F1.2760466479516752
sg25
F-0.019689808745349802
sg26
I1
sg27
g425
sg29
I352
sS'y'
F0.41497800000000001
sS'x'
F3.1288879999999999
sS'z'
F1.5080009999999999
sg30
g426
sg46
g430
sbasg1640
(lp2487
sg1654
g1848
sg1656
(lp2488
sbag2
(g1647
g4
NtRp2489
(dp2490
g11
g1853
sg13
(lp2491
sg1653
F4.4372998525075955
sg17
(lp2492
g2
(g19
g4
NtRp2493
(dp2494
g22
I1
sg23
F33.059763235618966
sg24
F-18.960280134799575
sg25
F27.035918845835795
sg26
I1
sg27
g433
sg29
I907
sS'y'
F1.6194809999999999
sS'x'
F3.0966140000000002
sS'z'
F0.73890400000000001
sg30
g139
sg46
g434
sbag2
(g19
g4
NtRp2495
(dp2496
g22
I2
sg23
F-4.7539590210567155
sg24
F1.8618669974012863
sg25
F-0.07363342156327643
sg26
I1
sg27
g437
sg29
I344
sS'y'
F3.2209210000000001
sS'x'
F2.441462
sS'z'
F2.660148
sg30
g438
sg46
g442
sbag2
(g19
g4
NtRp2497
(dp2498
g22
I3
sg23
F-32.73240172257956
sg24
F10.683579607047347
sg25
F-25.122664478165579
sg26
I1
sg27
g445
sg29
I344
sS'y'
F2.1637659999999999
sS'x'
F1.215141
sS'z'
F-0.65605000000000002
sg30
g438
sg46
g446
sbag2
(g19
g4
NtRp2499
(dp2500
g22
I4
sg23
F0.96746734197502937
sg24
F7.812244177125085
sg25
F-4.708140141117398
sg26
I1
sg27
g449
sg29
I344
sS'y'
F-0.38455099999999998
sS'x'
F1.787236
sS'z'
F1.9552130000000001
sg30
g438
sg46
g450
sbag2
(g19
g4
NtRp2501
(dp2502
g22
I5
sg23
F4.5336368295638572
sg24
F-1.786188460136388
sg25
F1.7930738940302506
sg26
I1
sg27
g453
sg29
I352
sS'y'
F1.9345870000000001
sS'x'
F-0.70287599999999995
sS'z'
F2.0623019999999999
sg30
g454
sg46
g458
sbasg1640
(lp2503
sg1654
g1856
sg1656
(lp2504
sbag2
(g1647
g4
NtRp2505
(dp2506
g11
g1861
sg13
(lp2507
sg1653
F4.5849880022431604
sg17
(lp2508
g2
(g19
g4
NtRp2509
(dp2510
g22
I1
sg23
F-12.499338147781842
sg24
F10.527203504556791
sg25
F-16.983723773940401
sg26
I1
sg27
g461
sg29
I907
sS'y'
F-0.139516
sS'x'
F1.9973510000000001
sS'z'
F1.2975939999999999
sg30
g139
sg46
g462
sbag2
(g19
g4
NtRp2511
(dp2512
g22
I2
sg23
F0.89656481850092973
sg24
F-1.3868685052476826
sg25
F1.2681013303887791
sg26
I1
sg27
g465
sg29
I344
sS'y'
F1.7609900000000001
sS'x'
F3.7243759999999999
sS'z'
F1.5486279999999999
sg30
g466
sg46
g470
sbag2
(g19
g4
NtRp2513
(dp2514
g22
I3
sg23
F11.361854948727512
sg24
F-7.2145503316350732
sg25
F22.871360597387049
sg26
I1
sg27
g473
sg29
I344
sS'y'
F1.2401709999999999
sS'x'
F0.71683699999999995
sS'z'
F-0.86828499999999997
sg30
g466
sg46
g474
sbag2
(g19
g4
NtRp2515
(dp2516
g22
I4
sg23
F3.4453843007127469
sg24
F-0.00019456857219928559
sg25
F-3.0348016437693652
sg26
I1
sg27
g477
sg29
I344
sS'y'
F0.86047700000000005
sS'x'
F0.37781799999999999
sS'z'
F3.0642749999999999
sg30
g466
sg46
g478
sbag2
(g19
g4
NtRp2517
(dp2518
g22
I5
sg23
F-2.5556583760782443
sg24
F-2.1531549566702024
sg25
F-2.9726722640901531
sg26
I1
sg27
g481
sg29
I352
sS'y'
F3.7847300000000001
sS'x'
F1.122274
sS'z'
F1.49007
sg30
g482
sg46
g486
sbasg1640
(lp2519
sg1654
g1864
sg1656
(lp2520
sbag2
(g1647
g4
NtRp2521
(dp2522
g11
g1869
sg13
(lp2523
sg1653
F5.8152415731070297
sg17
(lp2524
g2
(g19
g4
NtRp2525
(dp2526
g22
I1
sg23
F1.2750938248441233
sg24
F11.842058531716541
sg25
F3.0696505134612821
sg26
I1
sg27
g489
sg29
I907
sS'y'
F0.33178999999999997
sS'x'
F0.39679900000000001
sS'z'
F0.41040399999999999
sg30
g139
sg46
g490
sbag2
(g19
g4
NtRp2527
(dp2528
g22
I2
sg23
F0.50180711083234819
sg24
F4.001954453990491
sg25
F1.8746993688398035
sg26
I1
sg27
g493
sg29
I344
sS'y'
F0.12513099999999999
sS'x'
F2.924175
sS'z'
F0.95467900000000006
sg30
g494
sg46
g498
sbag2
(g19
g4
NtRp2529
(dp2530
g22
I3
sg23
F3.2140796149374067
sg24
F-6.1368459811856697
sg25
F6.7773585171695636
sg26
I1
sg27
g501
sg29
I344
sS'y'
F2.7863570000000002
sS'x'
F0.647926
sS'z'
F-0.53377699999999995
sg30
g494
sg46
g502
sbag2
(g19
g4
NtRp2531
(dp2532
g22
I4
sg23
F4.6527091020027385
sg24
F0.76566683394657453
sg25
F-3.3332142802784377
sg26
I1
sg27
g505
sg29
I344
sS'y'
F1.2509399999999999
sS'x'
F-0.147512
sS'z'
F2.8062939999999998
sg30
g494
sg46
g506
sbag2
(g19
g4
NtRp2533
(dp2534
g22
I5
sg23
F-10.431581937065227
sg24
F-12.474867967454191
sg25
F-8.6518401375437612
sg26
I1
sg27
g509
sg29
I352
sS'y'
F3.4267080000000001
sS'x'
F2.832554
sS'z'
F2.5579329999999998
sg30
g510
sg46
g514
sbasg1640
(lp2535
sg1654
g1872
sg1656
(lp2536
sbag2
(g1647
g4
NtRp2537
(dp2538
g11
g1877
sg13
(lp2539
sg1653
F6.0143826363050463
sg17
(lp2540
g2
(g19
g4
NtRp2541
(dp2542
g22
I1
sg23
F13.772902768448917
sg24
F-15.091257663064214
sg25
F-10.791558979518502
sg26
I1
sg27
g517
sg29
I907
sS'y'
F1.8282529999999999
sS'x'
F-0.34142499999999998
sS'z'
F1.860403
sg30
g139
sg46
g518
sbag2
(g19
g4
NtRp2543
(dp2544
g22
I2
sg23
F-1.2666697383697634
sg24
F7.1884279198579932
sg25
F22.551968997641524
sg26
I1
sg27
g521
sg29
I344
sS'y'
F0.956515
sS'x'
F0.49738300000000002
sS'z'
F-0.66109300000000004
sg30
g522
sg46
g526
sbag2
(g19
g4
NtRp2545
(dp2546
g22
I3
sg23
F2.7241838269614815
sg24
F-6.2950840274679898
sg25
F1.5399490181329294
sg26
I1
sg27
g529
sg29
I344
sS'y'
F3.9855049999999999
sS'x'
F1.0573250000000001
sS'z'
F1.6351070000000001
sg30
g522
sg46
g530
sbag2
(g19
g4
NtRp2547
(dp2548
g22
I4
sg23
F-7.8062234346006196
sg24
F15.217037603520149
sg25
F-14.088237182487401
sg26
I1
sg27
g533
sg29
I344
sS'y'
F0.25709399999999999
sS'x'
F1.4557709999999999
sS'z'
F3.2550279999999998
sg30
g522
sg46
g534
sbag2
(g19
g4
NtRp2549
(dp2550
g22
I5
sg23
F-5.0821111074361811
sg24
F-1.1913647486207295
sg25
F0.28226100465329085
sg26
I1
sg27
g537
sg29
I352
sS'y'
F1.6391610000000001
sS'x'
F3.5604550000000001
sS'z'
F0.83450000000000002
sg30
g538
sg46
g542
sbasg1640
(lp2551
sg1654
g1880
sg1656
(lp2552
sbag2
(g1647
g4
NtRp2553
(dp2554
g11
g1885
sg13
(lp2555
sg1653
F6.4636426016380302
sg17
(lp2556
g2
(g19
g4
NtRp2557
(dp2558
g22
I1
sg23
F-0.83968626334492424
sg24
F5.997060122561904
sg25
F12.872940933486618
sg26
I1
sg27
g545
sg29
I907
sS'y'
F0.31957799999999997
sS'x'
F0.46413599999999999
sS'z'
F0.32862799999999998
sg30
g139
sg46
g546
sbag2
(g19
g4
NtRp2559
(dp2560
g22
I2
sg23
F2.230116143162483
sg24
F-0.22880001694763391
sg25
F-0.4463909676569634
sg26
I1
sg27
g549
sg29
I344
sS'y'
F0.64720999999999995
sS'x'
F3.0417399999999999
sS'z'
F0.68039899999999998
sg30
g550
sg46
g554
sbag2
(g19
g4
NtRp2561
(dp2562
g22
I3
sg23
F3.1329329457989199
sg24
F0.97163074870167931
sg25
F0.21204924152830262
sg26
I1
sg27
g557
sg29
I344
sS'y'
F2.885157
sS'x'
F0.14574500000000001
sS'z'
F0.12565000000000001
sg30
g550
sg46
g558
sbag2
(g19
g4
NtRp2563
(dp2564
g22
I4
sg23
F4.5806473739729867
sg24
F0.56577916041406107
sg25
F-8.5596594893360241
sg26
I1
sg27
g561
sg29
I344
sS'y'
F0.47261900000000001
sS'x'
F-0.0079729999999999992
sS'z'
F2.8985310000000002
sg30
g550
sg46
g562
sbag2
(g19
g4
NtRp2565
(dp2566
g22
I5
sg23
F-10.339664274163352
sg24
F-8.2602904865681044
sg25
F-5.442624251921754
sg26
I1
sg27
g565
sg29
I352
sS'y'
F3.4302630000000001
sS'x'
F2.9202539999999999
sS'z'
F2.476807
sg30
g566
sg46
g570
sbasg1640
(lp2567
sg1654
g1888
sg1656
(lp2568
sbag2
(g1647
g4
NtRp2569
(dp2570
g11
g1893
sg13
(lp2571
sg1653
F6.7318527033984665
sg17
(lp2572
g2
(g19
g4
NtRp2573
(dp2574
g22
I1
sg23
F1.9739271422000941
sg24
F-7.8234614822573612
sg25
F13.177298412243044
sg26
I1
sg27
g573
sg29
I907
sS'y'
F0.44441900000000001
sS'x'
F0.42879699999999998
sS'z'
F0.24921099999999999
sg30
g139
sg46
g574
sbag2
(g19
g4
NtRp2575
(dp2576
g22
I2
sg23
F-2.7930994097682533
sg24
F5.4144684946303832
sg25
F0.32155105678136692
sg26
I1
sg27
g577
sg29
I344
sS'y'
F0.16037499999999999
sS'x'
F2.9764400000000002
sS'z'
F0.82952099999999995
sg30
g578
sg46
g582
sbag2
(g19
g4
NtRp2577
(dp2578
g22
I3
sg23
F0.60865290849084663
sg24
F9.8993154775071019
sg25
F-2.6522900499948632
sg26
I1
sg27
g585
sg29
I344
sS'y'
F3.004149
sS'x'
F0.62116300000000002
sS'z'
F0.18709999999999999
sg30
g578
sg46
g586
sbag2
(g19
g4
NtRp2579
(dp2580
g22
I4
sg23
F4.9287166011473253
sg24
F2.4782823373214327
sg25
F-8.783559752558519
sg26
I1
sg27
g589
sg29
I344
sS'y'
F0.48762
sS'x'
F-0.25319399999999997
sS'z'
F2.77006
sg30
g578
sg46
g590
sbag2
(g19
g4
NtRp2581
(dp2582
g22
I5
sg23
F-3.5311490098462985
sg24
F-10.015780831321454
sg25
F-2.4152365858301064
sg26
I1
sg27
g593
sg29
I352
sS'y'
F3.3918430000000002
sS'x'
F2.889551
sS'z'
F2.4909460000000001
sg30
g594
sg46
g598
sbasg1640
(lp2583
sg1654
g1896
sg1656
(lp2584
sbag2
(g1647
g4
NtRp2585
(dp2586
g11
g1901
sg13
(lp2587
sg1653
F7.0183306817683526
sg17
(lp2588
g2
(g19
g4
NtRp2589
(dp2590
g22
I1
sg23
F6.320477586462169
sg24
F6.3336487343906525
sg25
F-4.5253940865056119
sg26
I1
sg27
g601
sg29
I907
sS'y'
F0.335559
sS'x'
F0.231077
sS'z'
F0.51522100000000004
sg30
g139
sg46
g602
sbag2
(g19
g4
NtRp2591
(dp2592
g22
I2
sg23
F-2.767028307280492
sg24
F0.99113971087843467
sg25
F2.6375689121132195
sg26
I1
sg27
g605
sg29
I344
sS'y'
F0.57136600000000004
sS'x'
F2.4968340000000002
sS'z'
F-0.67414200000000002
sg30
g606
sg46
g610
sbag2
(g19
g4
NtRp2593
(dp2594
g22
I3
sg23
F2.1490831928165735
sg24
F-0.40466117838744065
sg25
F3.3151842422582627
sg26
I1
sg27
g613
sg29
I344
sS'y'
F2.9227979999999998
sS'x'
F-0.12627099999999999
sS'z'
F0.48939500000000002
sg30
g606
sg46
g614
sbag2
(g19
g4
NtRp2595
(dp2596
g22
I4
sg23
F0.10003344896772773
sg24
F-1.50207813683585
sg25
F7.1817055242843555
sg26
I1
sg27
g617
sg29
I344
sS'y'
F0.49817299999999998
sS'x'
F1.4508829999999999
sS'z'
F2.8075049999999999
sg30
g606
sg46
g618
sbag2
(g19
g4
NtRp2597
(dp2598
g22
I5
sg23
F-6.4712450583237668
sg24
F-4.4199430299582474
sg25
F-8.3350264519111743
sg26
I1
sg27
g621
sg29
I352
sS'y'
F3.4117630000000001
sS'x'
F2.8541310000000002
sS'z'
F2.548635
sg30
g622
sg46
g626
sbasg1640
(lp2599
sg1654
g1904
sg1656
(lp2600
sbag2
(g1647
g4
NtRp2601
(dp2602
g11
g1909
sg13
(lp2603
sg1653
F7.024487960929104
sg17
(lp2604
g2
(g19
g4
NtRp2605
(dp2606
g22
I1
sg23
F-1.7821575160418401
sg24
F21.663838385177584
sg25
F13.851017012342796
sg26
I1
sg27
g629
sg29
I907
sS'y'
F0.30820500000000001
sS'x'
F0.38226700000000002
sS'z'
F0.32866000000000001
sg30
g139
sg46
g630
sbag2
(g19
g4
NtRp2607
(dp2608
g22
I2
sg23
F3.6495996572606595
sg24
F2.1216406476904437
sg25
F1.6225654393144564
sg26
I1
sg27
g633
sg29
I344
sS'y'
F0.25906800000000002
sS'x'
F2.928204
sS'z'
F0.61481600000000003
sg30
g634
sg46
g638
sbag2
(g19
g4
NtRp2609
(dp2610
g22
I3
sg23
F3.3783533791316396
sg24
F-12.369406104769698
sg25
F3.8814218672398764
sg26
I1
sg27
g641
sg29
I344
sS'y'
F2.9907620000000001
sS'x'
F0.44840200000000002
sS'z'
F-0.119149
sg30
g634
sg46
g642
sbag2
(g19
g4
NtRp2611
(dp2612
g22
I4
sg23
F5.8290468254233048
sg24
F-0.6542260315195958
sg25
F-12.203057724700521
sg26
I1
sg27
g645
sg29
I344
sS'y'
F0.83071799999999996
sS'x'
F0.0057759999999999999
sS'z'
F2.9200080000000002
sg30
g634
sg46
g646
sbag2
(g19
g4
NtRp2613
(dp2614
g22
I5
sg23
F-10.60244546463251
sg24
F-11.040812661435831
sg25
F-7.9731998690672441
sg26
I1
sg27
g649
sg29
I352
sS'y'
F3.3836439999999999
sS'x'
F2.899718
sS'z'
F2.485147
sg30
g650
sg46
g654
sbasg1640
(lp2615
sg1654
g1912
sg1656
(lp2616
sbag2
(g1647
g4
NtRp2617
(dp2618
g11
g1917
sg13
(lp2619
sg1653
F7.1419295858758476
sg17
(lp2620
g2
(g19
g4
NtRp2621
(dp2622
g22
I1
sg23
F-11.084444757725665
sg24
F3.3713672915191464
sg25
F-1.5586900188678761
sg26
I1
sg27
g657
sg29
I907
sS'y'
F0.25040899999999999
sS'x'
F0.48053299999999999
sS'z'
F0.37751699999999999
sg30
g139
sg46
g658
sbag2
(g19
g4
NtRp2623
(dp2624
g22
I2
sg23
F12.083276440177352
sg24
F4.7352697944421793
sg25
F-1.4872465790394394
sg26
I1
sg27
g661
sg29
I344
sS'y'
F1.3415189999999999
sS'x'
F2.7355360000000002
sS'z'
F-0.12973100000000001
sg30
g662
sg46
g666
sbag2
(g19
g4
NtRp2625
(dp2626
g22
I3
sg23
F3.7171454195947153
sg24
F-1.6011066921272137
sg25
F1.0866250200125651
sg26
I1
sg27
g669
sg29
I344
sS'y'
F2.5906850000000001
sS'x'
F-0.62379200000000001
sS'z'
F0.57389400000000002
sg30
g662
sg46
g670
sbag2
(g19
g4
NtRp2627
(dp2628
g22
I4
sg23
F4.8568430407758916
sg24
F2.7479944665140694
sg25
F7.0973103628909913
sg26
I1
sg27
g673
sg29
I344
sS'y'
F0.20222000000000001
sS'x'
F0.96004999999999996
sS'z'
F2.8831699999999998
sg30
g662
sg46
g674
sbag2
(g19
g4
NtRp2629
(dp2630
g22
I5
sg23
F-10.740154782838308
sg24
F-10.689250414764015
sg25
F-6.5063232593132279
sg26
I1
sg27
g677
sg29
I352
sS'y'
F3.4371369999999999
sS'x'
F2.8799410000000001
sS'z'
F2.52901
sg30
g678
sg46
g682
sbasg1640
(lp2631
sg1654
g1920
sg1656
(lp2632
sbag2
(g1647
g4
NtRp2633
(dp2634
g11
g1925
sg13
(lp2635
sg1653
F7.7137183543167316
sg17
(lp2636
g2
(g19
g4
NtRp2637
(dp2638
g22
I1
sg23
F4.5040401860031887
sg24
F21.826202771464239
sg25
F-2.6072030845575358
sg26
I1
sg27
g685
sg29
I907
sS'y'
F0.26555800000000002
sS'x'
F0.31223299999999998
sS'z'
F0.53206600000000004
sg30
g139
sg46
g686
sbag2
(g19
g4
NtRp2639
(dp2640
g22
I2
sg23
F2.9869909234635408
sg24
F0.6693187947456698
sg25
F3.2227260377128299
sg26
I1
sg27
g689
sg29
I344
sS'y'
F0.12706899999999999
sS'x'
F2.8539050000000001
sS'z'
F0.84864300000000004
sg30
g690
sg46
g694
sbag2
(g19
g4
NtRp2641
(dp2642
g22
I3
sg23
F-1.2521667284076758
sg24
F-11.118690247013479
sg25
F8.7811179307919147
sg26
I1
sg27
g697
sg29
I344
sS'y'
F2.5343079999999998
sS'x'
F0.64314400000000005
sS'z'
F-0.824847
sg30
g690
sg46
g698
sbag2
(g19
g4
NtRp2643
(dp2644
g22
I4
sg23
F-0.012233320366868226
sg24
F-2.9115308983153279
sg25
F-1.0594692910863943
sg26
I1
sg27
g701
sg29
I344
sS'y'
F1.6837470000000001
sS'x'
F0.089024000000000006
sS'z'
F2.7693490000000001
sg30
g690
sg46
g702
sbag2
(g19
g4
NtRp2645
(dp2646
g22
I5
sg23
F-7.7571864839413767
sg24
F-10.254676955902362
sg25
F-9.2660588754433704
sg26
I1
sg27
g705
sg29
I352
sS'y'
F3.4574310000000001
sS'x'
F2.9088379999999998
sS'z'
F2.5286019999999998
sg30
g706
sg46
g710
sbasg1640
(lp2647
sg1654
g1928
sg1656
(lp2648
sbag2
(g1647
g4
NtRp2649
(dp2650
g11
g1933
sg13
(lp2651
sg1653
F12.01345324217298
sg17
(lp2652
g2
(g19
g4
NtRp2653
(dp2654
g22
I1
sg23
F-14.434137422402687
sg24
F17.206425846085082
sg25
F4.6920460949564893
sg26
I1
sg27
g713
sg29
I907
sS'y'
F0.169989
sS'x'
F0.60281499999999999
sS'z'
F0.44361600000000001
sg30
g139
sg46
g714
sbag2
(g19
g4
NtRp2655
(dp2656
g22
I2
sg23
F5.5286620315357862
sg24
F-11.11953080036824
sg25
F-11.533822636311269
sg26
I1
sg27
g717
sg29
I344
sS'y'
F1.315844
sS'x'
F2.9693700000000001
sS'z'
F0.390241
sg30
g718
sg46
g722
sbag2
(g19
g4
NtRp2657
(dp2658
g22
I3
sg23
F8.7813920246122787
sg24
F-11.888776826619409
sg25
F3.027758708025623
sg26
I1
sg27
g725
sg29
I344
sS'y'
F2.310149
sS'x'
F-0.63004199999999999
sS'z'
F-0.417852
sg30
g718
sg46
g726
sbag2
(g19
g4
NtRp2659
(dp2660
g22
I4
sg23
F8.4582793713299367
sg24
F-1.2511866498340973
sg25
F-6.3557095528658571
sg26
I1
sg27
g729
sg29
I344
sS'y'
F0.94538999999999995
sS'x'
F0.125334
sS'z'
F2.925138
sg30
g718
sg46
g730
sbag2
(g19
g4
NtRp2661
(dp2662
g22
I5
sg23
F-8.9451262420437896
sg24
F6.1674906682662183
sg25
F10.307352804760038
sg26
I1
sg27
g733
sg29
I352
sS'y'
F3.4134570000000002
sS'x'
F2.9386160000000001
sS'z'
F2.4992000000000001
sg30
g734
sg46
g738
sbasg1640
(lp2663
sg1654
g1936
sg1656
(lp2664
sbag2
(g1647
g4
NtRp2665
(dp2666
g11
g1941
sg13
(lp2667
sg1653
F13.084702223053732
sg17
(lp2668
g2
(g19
g4
NtRp2669
(dp2670
g22
I1
sg23
F36.276100389324505
sg24
F-77.806687410778494
sg25
F-29.552593136552659
sg26
I1
sg27
g741
sg29
I907
sS'y'
F0.055312
sS'x'
F1.385297
sS'z'
F1.866619
sg30
g139
sg46
g742
sbag2
(g19
g4
NtRp2671
(dp2672
g22
I2
sg23
F-54.595924516107161
sg24
F56.723188794715675
sg25
F20.511432954247198
sg26
I1
sg27
g745
sg29
I344
sS'y'
F1.592921
sS'x'
F-0.27036300000000002
sS'z'
F2.344643
sg30
g746
sg46
g750
sbag2
(g19
g4
NtRp2673
(dp2674
g22
I3
sg23
F15.243958483651131
sg24
F18.810595005537898
sg25
F6.0304725657542742
sg26
I1
sg27
g753
sg29
I344
sS'y'
F1.2808809999999999
sS'x'
F3.496915
sS'z'
F2.3434409999999999
sg30
g746
sg46
g754
sbag2
(g19
g4
NtRp2675
(dp2676
g22
I4
sg23
F0.31617662394691121
sg24
F1.7410396935079193
sg25
F6.2536928474915348
sg26
I1
sg27
g757
sg29
I344
sS'y'
F0.85267099999999996
sS'x'
F1.429327
sS'z'
F-0.69567699999999999
sg30
g746
sg46
g758
sbag2
(g19
g4
NtRp2677
(dp2678
g22
I5
sg23
F2.3406225758020014
sg24
F-2.0759796964867032
sg25
F-3.1353337995822428
sg26
I1
sg27
g761
sg29
I352
sS'y'
F3.8168669999999998
sS'x'
F1.7154
sS'z'
F0.88011099999999998
sg30
g762
sg46
g766
sbasg1640
(lp2679
sg1654
g1944
sg1656
(lp2680
sbag2
(g1647
g4
NtRp2681
(dp2682
g11
g1949
sg13
(lp2683
sg1653
F14.770462628954609
sg17
(lp2684
g2
(g19
g4
NtRp2685
(dp2686
g22
I1
sg23
F15.144176778665889
sg24
F0.68532041422398493
sg25
F-3.4373144392474471
sg26
I1
sg27
g769
sg29
I907
sS'y'
F0.47050999999999998
sS'x'
F0.27442100000000003
sS'z'
F0.38691599999999998
sg30
g139
sg46
g770
sbag2
(g19
g4
NtRp2687
(dp2688
g22
I2
sg23
F-10.652912098183061
sg24
F4.1229103334845201
sg25
F4.0784426475719604
sg26
I1
sg27
g773
sg29
I344
sS'y'
F0.30150199999999999
sS'x'
F2.9021889999999999
sS'z'
F-0.010168999999999999
sg30
g774
sg46
g778
sbag2
(g19
g4
NtRp2689
(dp2690
g22
I3
sg23
F3.7245338706934841
sg24
F4.4367331002060819
sg25
F3.9345794056186696
sg26
I1
sg27
g781
sg29
I344
sS'y'
F3.084387
sS'x'
F0.38717600000000002
sS'z'
F0.51971900000000004
sg30
g774
sg46
g782
sbag2
(g19
g4
NtRp2691
(dp2692
g22
I4
sg23
F1.7299938659889589
sg24
F2.5996190688199383
sg25
F4.8180651637367378
sg26
I1
sg27
g785
sg29
I344
sS'y'
F0.198439
sS'x'
F0.48939500000000002
sS'z'
F2.902129
sg30
g774
sg46
g786
sbag2
(g19
g4
NtRp2693
(dp2694
g22
I5
sg23
F-10.110284896246894
sg24
F-11.749796142012386
sg25
F-9.1719172352897758
sg26
I1
sg27
g789
sg29
I352
sS'y'
F3.717657
sS'x'
F3.1333989999999998
sS'z'
F2.7462650000000002
sg30
g790
sg46
g794
sbasg1640
(lp2695
sg1654
g1952
sg1656
(lp2696
sbag2
(g1647
g4
NtRp2697
(dp2698
g11
g1957
sg13
(lp2699
sg1653
F15.53798873860705
sg17
(lp2700
g2
(g19
g4
NtRp2701
(dp2702
g22
I1
sg23
F11.747713722429722
sg24
F-7.340421108624378
sg25
F9.3235727278241693
sg26
I1
sg27
g797
sg29
I907
sS'y'
F0.43187799999999998
sS'x'
F0.34306700000000001
sS'z'
F0.26408399999999999
sg30
g139
sg46
g798
sbag2
(g19
g4
NtRp2703
(dp2704
g22
I2
sg23
F-3.5972491711956813
sg24
F4.0111847271493319
sg25
F1.9055258700965294
sg26
I1
sg27
g801
sg29
I344
sS'y'
F0.67793800000000004
sS'x'
F2.9728699999999999
sS'z'
F0.171426
sg30
g802
sg46
g806
sbag2
(g19
g4
NtRp2705
(dp2706
g22
I3
sg23
F2.0525849941997958
sg24
F14.48311100425164
sg25
F3.1135245650073848
sg26
I1
sg27
g809
sg29
I344
sS'y'
F2.934059
sS'x'
F0.074122999999999994
sS'z'
F0.53608199999999995
sg30
g802
sg46
g810
sbag2
(g19
g4
NtRp2707
(dp2708
g22
I4
sg23
F0.11996431769517435
sg24
F2.0761039581702292
sg25
F-4.1836947919851495
sg26
I1
sg27
g813
sg29
I344
sS'y'
F0.101634
sS'x'
F0.44843499999999997
sS'z'
F2.8402959999999999
sg30
g802
sg46
g814
sbag2
(g19
g4
NtRp2709
(dp2710
g22
I5
sg23
F-10.427211016457585
sg24
F-13.954936025923223
sg25
F-9.9529094827962687
sg26
I1
sg27
g817
sg29
I352
sS'y'
F3.7086709999999998
sS'x'
F3.1320399999999999
sS'z'
F2.7792690000000002
sg30
g818
sg46
g822
sbasg1640
(lp2711
sg1654
g1960
sg1656
(lp2712
sbag2
(g1647
g4
NtRp2713
(dp2714
g11
g1965
sg13
(lp2715
sg1653
F15.803029859555238
sg17
(lp2716
g2
(g19
g4
NtRp2717
(dp2718
g22
I1
sg23
F-9.3793062368001756
sg24
F11.135644435839515
sg25
F-12.233246221565652
sg26
I1
sg27
g825
sg29
I907
sS'y'
F0.23899400000000001
sS'x'
F0.450075
sS'z'
F0.61251100000000003
sg30
g139
sg46
g826
sbag2
(g19
g4
NtRp2719
(dp2720
g22
I2
sg23
F9.4757293640095703
sg24
F3.3594810173668499
sg25
F3.2708978523300725
sg26
I1
sg27
g829
sg29
I344
sS'y'
F0.69590600000000002
sS'x'
F2.88632
sS'z'
F0.053134000000000001
sg30
g830
sg46
g834
sbag2
(g19
g4
NtRp2721
(dp2722
g22
I3
sg23
F3.5182474046623211
sg24
F-10.004504812804587
sg25
F6.5686367595371795
sg26
I1
sg27
g837
sg29
I344
sS'y'
F2.554627
sS'x'
F-0.28097899999999998
sS'z'
F-0.42646200000000001
sg30
g830
sg46
g838
sbag2
(g19
g4
NtRp2723
(dp2724
g22
I4
sg23
F5.9735209894280317
sg24
F7.4112668657869865
sg25
F10.279683317710482
sg26
I1
sg27
g841
sg29
I344
sS'y'
F1.207544
sS'x'
F0.63419999999999999
sS'z'
F2.9884529999999998
sg30
g830
sg46
g842
sbag2
(g19
g4
NtRp2725
(dp2726
g22
I5
sg23
F-9.5191186228126927
sg24
F-12.496713662810837
sg25
F-8.2526144236018695
sg26
I1
sg27
g845
sg29
I352
sS'y'
F3.7543229999999999
sS'x'
F3.153543
sS'z'
F2.801752
sg30
g846
sg46
g850
sbasg1640
(lp2727
sg1654
g1968
sg1656
(lp2728
sbag2
(g1647
g4
NtRp2729
(dp2730
g11
g1973
sg13
(lp2731
sg1653
F15.848457177321292
sg17
(lp2732
g2
(g19
g4
NtRp2733
(dp2734
g22
I1
sg23
F11.85620853210801
sg24
F16.544116420823556
sg25
F-0.20456119325300615
sg26
I1
sg27
g853
sg29
I907
sS'y'
F0.23650499999999999
sS'x'
F0.34618100000000002
sS'z'
F0.54656800000000005
sg30
g139
sg46
g854
sbag2
(g19
g4
NtRp2735
(dp2736
g22
I2
sg23
F-8.0281979595211599
sg24
F1.6409866706451428
sg25
F6.1104571310717448
sg26
I1
sg27
g857
sg29
I344
sS'y'
F0.48908099999999999
sS'x'
F2.9229820000000002
sS'z'
F-0.0090220000000000005
sg30
g858
sg46
g862
sbag2
(g19
g4
NtRp2737
(dp2738
g22
I3
sg23
F2.2512054267070392
sg24
F-7.2513980414331503
sg25
F4.3260903439904812
sg26
I1
sg27
g865
sg29
I344
sS'y'
F2.6220599999999998
sS'x'
F-0.16888300000000001
sS'z'
F-0.35732999999999998
sg30
g858
sg46
g866
sbag2
(g19
g4
NtRp2739
(dp2740
g22
I4
sg23
F4.2671106894451425
sg24
F2.0977827483337017
sg25
F-2.1850364620552747
sg26
I1
sg27
g869
sg29
I344
sS'y'
F1.166703
sS'x'
F0.66029300000000002
sS'z'
F3.0201069999999999
sg30
g858
sg46
g870
sbag2
(g19
g4
NtRp2741
(dp2742
g22
I5
sg23
F-10.353089134491706
sg24
F-12.903240527354665
sg25
F-7.4040480815946976
sg26
I1
sg27
g873
sg29
I352
sS'y'
F3.7441620000000002
sS'x'
F3.1890049999999999
sS'z'
F2.7305060000000001
sg30
g874
sg46
g878
sbasg1640
(lp2743
sg1654
g1976
sg1656
(lp2744
sbag2
(g1647
g4
NtRp2745
(dp2746
g11
g1981
sg13
(lp2747
sg1653
F15.962626669009216
sg17
(lp2748
g2
(g19
g4
NtRp2749
(dp2750
g22
I1
sg23
F-0.026534393235290676
sg24
F1.917052341266644
sg25
F3.2072080738014286
sg26
I1
sg27
g881
sg29
I907
sS'y'
F0.36132999999999998
sS'x'
F0.343781
sS'z'
F0.399011
sg30
g139
sg46
g882
sbag2
(g19
g4
NtRp2751
(dp2752
g22
I2
sg23
F4.0608023716094142
sg24
F2.0418396313651948
sg25
F1.3470850171270341
sg26
I1
sg27
g885
sg29
I344
sS'y'
F-0.284858
sS'x'
F2.7517040000000001
sS'z'
F0.95915300000000003
sg30
g886
sg46
g890
sbag2
(g19
g4
NtRp2753
(dp2754
g22
I3
sg23
F3.99975667091952
sg24
F4.7201141035210394
sg25
F1.7225309257074688
sg26
I1
sg27
g893
sg29
I344
sS'y'
F2.695729
sS'x'
F0.980958
sS'z'
F-0.49645099999999998
sg30
g886
sg46
g894
sbag2
(g19
g4
NtRp2755
(dp2756
g22
I4
sg23
F3.2200403491906631
sg24
F3.8631134167390258
sg25
F2.3704066020256183
sg26
I1
sg27
g897
sg29
I344
sS'y'
F1.344511
sS'x'
F-0.033535000000000002
sS'z'
F2.7764880000000001
sg30
g886
sg46
g898
sbag2
(g19
g4
NtRp2757
(dp2758
g22
I5
sg23
F-12.103414878518089
sg24
F-13.773873549214835
sg25
F-9.8034531488534302
sg26
I1
sg27
g901
sg29
I352
sS'y'
F3.7582840000000002
sS'x'
F3.146039
sS'z'
F2.7892960000000002
sg30
g902
sg46
g906
sbasg1640
(lp2759
sg1654
g1984
sg1656
(lp2760
sbag2
(g1647
g4
NtRp2761
(dp2762
g11
g1989
sg13
(lp2763
sg1653
F16.378275432790733
sg17
(lp2764
g2
(g19
g4
NtRp2765
(dp2766
g22
I1
sg23
F-4.8334924666122259
sg24
F12.380677016073506
sg25
F-13.738703943696867
sg26
I1
sg27
g909
sg29
I907
sS'y'
F0.297124
sS'x'
F0.35581200000000002
sS'z'
F0.54415899999999995
sg30
g139
sg46
g910
sbag2
(g19
g4
NtRp2767
(dp2768
g22
I2
sg23
F0.19196583468300971
sg24
F0.69265173734421348
sg25
F2.1343325357889098
sg26
I1
sg27
g913
sg29
I344
sS'y'
F0.848943
sS'x'
F2.521366
sS'z'
F-0.72958900000000004
sg30
g914
sg46
g918
sbag2
(g19
g4
NtRp2769
(dp2770
g22
I3
sg23
F5.1664267246086828
sg24
F-5.071240266293815
sg25
F2.5599348173945615
sg26
I1
sg27
g921
sg29
I344
sS'y'
F2.869202
sS'x'
F-0.28886899999999999
sS'z'
F0.76156100000000004
sg30
g914
sg46
g922
sbag2
(g19
g4
NtRp2771
(dp2772
g22
I4
sg23
F10.65560035513418
sg24
F3.9773983273423021
sg25
F17.367562675115266
sg26
I1
sg27
g925
sg29
I344
sS'y'
F0.35097099999999998
sS'x'
F1.514829
sS'z'
F2.7698900000000002
sg30
g914
sg46
g926
sbag2
(g19
g4
NtRp2773
(dp2774
g22
I5
sg23
F-12.324914878482479
sg24
F-13.241237987681073
sg25
F-9.585225423420475
sg26
I1
sg27
g929
sg29
I352
sS'y'
F3.7471839999999998
sS'x'
F3.2038169999999999
sS'z'
F2.7579560000000001
sg30
g930
sg46
g934
sbasg1640
(lp2775
sg1654
g1992
sg1656
(lp2776
sbag2
(g1647
g4
NtRp2777
(dp2778
g11
g1997
sg13
(lp2779
sg1653
F17.172026071465702
sg17
(lp2780
g2
(g19
g4
NtRp2781
(dp2782
g22
I1
sg23
F-5.8708922117824764
sg24
F18.889435026266064
sg25
F17.300307869772443
sg26
I1
sg27
g937
sg29
I907
sS'y'
F0.34665899999999999
sS'x'
F0.51458700000000002
sS'z'
F0.236877
sg30
g139
sg46
g938
sbag2
(g19
g4
NtRp2783
(dp2784
g22
I2
sg23
F1.4599011219505675
sg24
F-31.651013292823766
sg25
F-26.856166271449226
sg26
I1
sg27
g941
sg29
I344
sS'y'
F1.225943
sS'x'
F3.0154489999999998
sS'z'
F0.72894000000000003
sg30
g942
sg46
g946
sbag2
(g19
g4
NtRp2785
(dp2786
g22
I3
sg23
F10.899458200642469
sg24
F-14.997603423213738
sg25
F-0.61210291213948476
sg26
I1
sg27
g949
sg29
I344
sS'y'
F2.8715480000000002
sS'x'
F-0.42383599999999999
sS'z'
F0.41889100000000001
sg30
g942
sg46
g950
sbag2
(g19
g4
NtRp2787
(dp2788
g22
I4
sg23
F3.5646647214321994
sg24
F1.5438695280831873
sg25
F-11.441272347777595
sg26
I1
sg27
g953
sg29
I344
sS'y'
F-0.054801999999999997
sS'x'
F0.110844
sS'z'
F2.7665320000000002
sg30
g942
sg46
g954
sbag2
(g19
g4
NtRp2789
(dp2790
g22
I5
sg23
F-10.202316517471651
sg24
F25.894456367714316
sg25
F21.359117650407999
sg26
I1
sg27
g957
sg29
I352
sS'y'
F3.3984209999999999
sS'x'
F2.9193370000000001
sS'z'
F2.4934310000000002
sg30
g958
sg46
g962
sbasg1640
(lp2791
sg1654
g2000
sg1656
(lp2792
sbag2
(g1647
g4
NtRp2793
(dp2794
g11
g2005
sg13
(lp2795
sg1653
F18.69116930302809
sg17
(lp2796
g2
(g19
g4
NtRp2797
(dp2798
g22
I1
sg23
F36.335177686858508
sg24
F-0.6915711414182697
sg25
F20.041884558046441
sg26
I1
sg27
g965
sg29
I907
sS'y'
F0.51741000000000004
sS'x'
F0.13795399999999999
sS'z'
F0.36054900000000001
sg30
g139
sg46
g966
sbag2
(g19
g4
NtRp2799
(dp2800
g22
I2
sg23
F-23.263964728370276
sg24
F7.907536518508385
sg25
F1.85425156169052
sg26
I1
sg27
g969
sg29
I344
sS'y'
F-0.37304500000000002
sS'x'
F2.6685629999999998
sS'z'
F-0.028915
sg30
g970
sg46
g974
sbag2
(g19
g4
NtRp2801
(dp2802
g22
I3
sg23
F-1.5990023152043544
sg24
F-1.1350408496095703
sg25
F2.1006116581933552
sg26
I1
sg27
g977
sg29
I344
sS'y'
F3.0334110000000001
sS'x'
F1.0008319999999999
sS'z'
F0.24291399999999999
sg30
g970
sg46
g978
sbag2
(g19
g4
NtRp2803
(dp2804
g22
I4
sg23
F-2.7155200548398137
sg24
F5.0585569396251815
sg25
F-17.644837366667588
sg26
I1
sg27
g981
sg29
I344
sS'y'
F0.49255399999999999
sS'x'
F0.55701400000000001
sS'z'
F3.062233
sg30
g970
sg46
g982
sbag2
(g19
g4
NtRp2805
(dp2806
g22
I5
sg23
F-9.796335293483887
sg24
F-11.870326618050383
sg25
F-6.7670470587453559
sg26
I1
sg27
g985
sg29
I352
sS'y'
F3.71651
sS'x'
F3.1462479999999999
sS'z'
F2.8168739999999999
sg30
g986
sg46
g990
sbasg1640
(lp2807
sg1654
g2008
sg1656
(lp2808
sbag2
(g1647
g4
NtRp2809
(dp2810
g11
g2013
sg13
(lp2811
sg1653
F23.223874535844185
sg17
(lp2812
g2
(g19
g4
NtRp2813
(dp2814
g22
I1
sg23
F-2.4528553745213824
sg24
F-2.7405479862336195
sg25
F15.520984769229969
sg26
I1
sg27
g993
sg29
I907
sS'y'
F0.52570099999999997
sS'x'
F0.40458100000000002
sS'z'
F0.21112800000000001
sg30
g139
sg46
g994
sbag2
(g19
g4
NtRp2815
(dp2816
g22
I2
sg23
F7.3399931794279638
sg24
F3.0560080185035132
sg25
F0.15834579341830055
sg26
I1
sg27
g997
sg29
I344
sS'y'
F0.375859
sS'x'
F2.9367329999999998
sS'z'
F0.45230900000000002
sg30
g998
sg46
g1002
sbag2
(g19
g4
NtRp2817
(dp2818
g22
I3
sg23
F5.553147184879295
sg24
F7.9213581584209232
sg25
F3.5409658678286116
sg26
I1
sg27
g1005
sg29
I344
sS'y'
F3.0690810000000002
sS'x'
F0.41843399999999997
sS'z'
F0.80519799999999997
sg30
g998
sg46
g1006
sbag2
(g19
g4
NtRp2819
(dp2820
g22
I4
sg23
F0.34067244587548962
sg24
F2.7880576513298685
sg25
F-10.025353945870741
sg26
I1
sg27
g1009
sg29
I344
sS'y'
F-0.16255800000000001
sS'x'
F0.038060999999999998
sS'z'
F2.7079
sg30
g998
sg46
g1010
sbag2
(g19
g4
NtRp2821
(dp2822
g22
I5
sg23
F-10.681158179744964
sg24
F-11.316662279276585
sg25
F-9.7043912692043648
sg26
I1
sg27
g1013
sg29
I352
sS'y'
F4.0588819999999997
sS'x'
F3.425465
sS'z'
F3.0086249999999999
sg30
g1014
sg46
g1018
sbasg1640
(lp2823
sg1654
g2016
sg1656
(lp2824
sbag2
(g1647
g4
NtRp2825
(dp2826
g11
g2021
sg13
(lp2827
sg1653
F24.224728041581848
sg17
(lp2828
g2
(g19
g4
NtRp2829
(dp2830
g22
I1
sg23
F1.9341366507824105
sg24
F-11.747194411234881
sg25
F17.902660826404844
sg26
I1
sg27
g1021
sg29
I907
sS'y'
F0.58420300000000003
sS'x'
F0.227327
sS'z'
F0.33728000000000002
sg30
g139
sg46
g1022
sbag2
(g19
g4
NtRp2831
(dp2832
g22
I2
sg23
F3.2364421870546218
sg24
F0.34021379632413296
sg25
F-3.1287038140900876
sg26
I1
sg27
g1025
sg29
I344
sS'y'
F-0.169516
sS'x'
F2.5737139999999998
sS'z'
F-0.19650100000000001
sg30
g1026
sg46
g1030
sbag2
(g19
g4
NtRp2833
(dp2834
g22
I3
sg23
F7.5651903190295222
sg24
F16.706438211032307
sg25
F4.537325745722371
sg26
I1
sg27
g1033
sg29
I344
sS'y'
F3.0482079999999998
sS'x'
F0.88103699999999996
sS'z'
F0.67119899999999999
sg30
g1026
sg46
g1034
sbag2
(g19
g4
NtRp2835
(dp2836
g22
I4
sg23
F-2.8732826038152286
sg24
F4.8909223553193932
sg25
F-11.441623444663126
sg26
I1
sg27
g1037
sg29
I344
sS'y'
F0.094810000000000005
sS'x'
F0.60460899999999995
sS'z'
F2.9410539999999998
sg30
g1026
sg46
g1038
sbag2
(g19
g4
NtRp2837
(dp2838
g22
I5
sg23
F-10.500386061202034
sg24
F-10.395342289184407
sg25
F-8.20173597460421
sg26
I1
sg27
g1041
sg29
I352
sS'y'
F4.1314190000000002
sS'x'
F3.4124979999999998
sS'z'
F3.0217019999999999
sg30
g1042
sg46
g1046
sbasg1640
(lp2839
sg1654
g2024
sg1656
(lp2840
sbag2
(g1647
g4
NtRp2841
(dp2842
g11
g2029
sg13
(lp2843
sg1653
F24.418042628824487
sg17
(lp2844
g2
(g19
g4
NtRp2845
(dp2846
g22
I1
sg23
F-2.7794351471972649
sg24
F13.342171591547563
sg25
F28.257993768174739
sg26
I1
sg27
g1049
sg29
I907
sS'y'
F0.39212900000000001
sS'x'
F0.542014
sS'z'
F0.18048700000000001
sg30
g139
sg46
g1050
sbag2
(g19
g4
NtRp2847
(dp2848
g22
I2
sg23
F0.87772443403230449
sg24
F4.9648313221144074
sg25
F1.7042196257445834
sg26
I1
sg27
g1053
sg29
I344
sS'y'
F1.097817
sS'x'
F3.0426839999999999
sS'z'
F0.729105
sg30
g1054
sg46
g1058
sbag2
(g19
g4
NtRp2849
(dp2850
g22
I3
sg23
F6.6180639785879203
sg24
F-7.9123836561996503
sg25
F-3.5369594898201928
sg26
I1
sg27
g1061
sg29
I344
sS'y'
F2.8572350000000002
sS'x'
F-0.325237
sS'z'
F0.61136000000000001
sg30
g1054
sg46
g1062
sbag2
(g19
g4
NtRp2851
(dp2852
g22
I4
sg23
F3.9800562161191779
sg24
F1.4341045840432312
sg25
F-17.470735596845358
sg26
I1
sg27
g1065
sg29
I344
sS'y'
F-0.204566
sS'x'
F0.052513999999999998
sS'z'
F2.7246950000000001
sg30
g1054
sg46
g1066
sbag2
(g19
g4
NtRp2853
(dp2854
g22
I5
sg23
F-9.3260235865238439
sg24
F-12.915026679023866
sg25
F-10.015024242826119
sg26
I1
sg27
g1069
sg29
I352
sS'y'
F4.0538449999999999
sS'x'
F3.4630879999999999
sS'z'
F2.9975049999999999
sg30
g1070
sg46
g1074
sbasg1640
(lp2855
sg1654
g2032
sg1656
(lp2856
sbag2
(g1647
g4
NtRp2857
(dp2858
g11
g2037
sg13
(lp2859
sg1653
F25.163211692490627
sg17
(lp2860
g2
(g19
g4
NtRp2861
(dp2862
g22
I1
sg23
F3.5123415726530061
sg24
F11.373434831599006
sg25
F1.3939910658462522
sg26
I1
sg27
g1077
sg29
I907
sS'y'
F0.29570400000000002
sS'x'
F0.44772499999999998
sS'z'
F0.42774800000000002
sg30
g139
sg46
g1078
sbag2
(g19
g4
NtRp2863
(dp2864
g22
I2
sg23
F1.0335264191333566
sg24
F3.8467858083689896
sg25
F2.2680497541270959
sg26
I1
sg27
g1081
sg29
I344
sS'y'
F0.61711499999999997
sS'x'
F3.0369570000000001
sS'z'
F0.48859200000000003
sg30
g1082
sg46
g1086
sbag2
(g19
g4
NtRp2865
(dp2866
g22
I3
sg23
F2.5588867798036485
sg24
F-4.4364902413750853
sg25
F1.7501546695828938
sg26
I1
sg27
g1089
sg29
I344
sS'y'
F2.764993
sS'x'
F-0.018737
sS'z'
F-0.26478299999999999
sg30
g1082
sg46
g1090
sbag2
(g19
g4
NtRp2867
(dp2868
g22
I4
sg23
F1.9026759052856133
sg24
F1.8930824709770993
sg25
F3.061968889123035
sg26
I1
sg27
g1093
sg29
I344
sS'y'
F0.878054
sS'x'
F0.269036
sS'z'
F2.9329499999999999
sg30
g1082
sg46
g1094
sbag2
(g19
g4
NtRp2869
(dp2870
g22
I5
sg23
F-9.5550646847978573
sg24
F-12.790884324280535
sg25
F-8.3670882251975591
sg26
I1
sg27
g1097
sg29
I352
sS'y'
F4.1102189999999998
sS'x'
F3.3973049999999998
sS'z'
F3.0445259999999998
sg30
g1098
sg46
g1102
sbasg1640
(lp2871
sg1654
g2040
sg1656
(lp2872
sbag2
(g1647
g4
NtRp2873
(dp2874
g11
g2045
sg13
(lp2875
sg1653
F25.254863907730421
sg17
(lp2876
g2
(g19
g4
NtRp2877
(dp2878
g22
I1
sg23
F23.787392864616393
sg24
F4.6667589787253219
sg25
F2.0779969329948624
sg26
I1
sg27
g1105
sg29
I907
sS'y'
F0.44615899999999997
sS'x'
F0.17773
sS'z'
F0.54408000000000001
sg30
g139
sg46
g1106
sbag2
(g19
g4
NtRp2879
(dp2880
g22
I2
sg23
F-11.775427789389887
sg24
F-0.29027366224925943
sg25
F4.4877046932914677
sg26
I1
sg27
g1109
sg29
I344
sS'y'
F0.25622099999999998
sS'x'
F2.4719220000000002
sS'z'
F-0.70963799999999999
sg30
g1110
sg46
g1114
sbag2
(g19
g4
NtRp2881
(dp2882
g22
I3
sg23
F1.3577781682833832
sg24
F2.5812704139868869
sg25
F4.4766362538742399
sg26
I1
sg27
g1117
sg29
I344
sS'y'
F3.0501200000000002
sS'x'
F0.33591100000000002
sS'z'
F0.50904199999999999
sg30
g1110
sg46
g1118
sbag2
(g19
g4
NtRp2883
(dp2884
g22
I4
sg23
F-2.6484671012135128
sg24
F5.2915616965071779
sg25
F-2.8453176193707255
sg26
I1
sg27
g1121
sg29
I344
sS'y'
F0.325044
sS'x'
F1.428674
sS'z'
F2.8793700000000002
sg30
g1110
sg46
g1122
sbag2
(g19
g4
NtRp2885
(dp2886
g22
I5
sg23
F-11.420350549279286
sg24
F-12.158175504316116
sg25
F-8.4780987185403571
sg26
I1
sg27
g1125
sg29
I352
sS'y'
F4.0990419999999999
sS'x'
F3.4699659999999999
sS'z'
F3.0383779999999998
sg30
g1126
sg46
g1130
sbasg1640
(lp2887
sg1654
g2048
sg1656
(lp2888
sbag2
(g1647
g4
NtRp2889
(dp2890
g11
g2053
sg13
(lp2891
sg1653
F25.457696423729978
sg17
(lp2892
g2
(g19
g4
NtRp2893
(dp2894
g22
I1
sg23
F20.703641188859084
sg24
F14.216733268574265
sg25
F11.145682196498422
sg26
I1
sg27
g1133
sg29
I907
sS'y'
F0.43864599999999998
sS'x'
F0.24918100000000001
sS'z'
F0.35875499999999999
sg30
g139
sg46
g1134
sbag2
(g19
g4
NtRp2895
(dp2896
g22
I2
sg23
F-9.4369330549946113
sg24
F2.3584047758438302
sg25
F-1.1692728149213114
sg26
I1
sg27
g1137
sg29
I344
sS'y'
F-0.40944199999999997
sS'x'
F2.7030419999999999
sS'z'
F0.60156100000000001
sg30
g1138
sg46
g1142
sbag2
(g19
g4
NtRp2897
(dp2898
g22
I3
sg23
F-1.8766810327255856
sg24
F-6.4710065513553037
sg25
F6.1495069734317394
sg26
I1
sg27
g1145
sg29
I344
sS'y'
F2.938707
sS'x'
F1.172844
sS'z'
F-0.18637000000000001
sg30
g1138
sg46
g1146
sbag2
(g19
g4
NtRp2899
(dp2900
g22
I4
sg23
F1.0016269015434147
sg24
F0.76872038647585439
sg25
F-6.5935693258518375
sg26
I1
sg27
g1149
sg29
I344
sS'y'
F1.00667
sS'x'
F0.084443000000000004
sS'z'
F2.9204210000000002
sg30
g1138
sg46
g1150
sbag2
(g19
g4
NtRp2901
(dp2902
g22
I5
sg23
F-11.645111894315443
sg24
F-11.713983988141727
sg25
F-10.228156975988348
sg26
I1
sg27
g1153
sg29
I352
sS'y'
F4.0900449999999999
sS'x'
F3.4339810000000002
sS'z'
F3.0031659999999998
sg30
g1154
sg46
g1158
sbasg1640
(lp2903
sg1654
g2056
sg1656
(lp2904
sbag2
(g1647
g4
NtRp2905
(dp2906
g11
g2061
sg13
(lp2907
sg1653
F26.857549122917067
sg17
(lp2908
g2
(g19
g4
NtRp2909
(dp2910
g22
I1
sg23
F15.134295530904989
sg24
F13.993736424740328
sg25
F3.4210508613605288
sg26
I1
sg27
g1161
sg29
I907
sS'y'
F0.34178700000000001
sS'x'
F0.270034
sS'z'
F0.41711100000000001
sg30
g139
sg46
g1162
sbag2
(g19
g4
NtRp2911
(dp2912
g22
I2
sg23
F-8.0405614883264818
sg24
F-1.5713336878551611
sg25
F4.9829247372454244
sg26
I1
sg27
g1165
sg29
I344
sS'y'
F0.954565
sS'x'
F2.6237140000000001
sS'z'
F-0.61931599999999998
sg30
g1166
sg46
g1170
sbag2
(g19
g4
NtRp2913
(dp2914
g22
I3
sg23
F3.0901540422378897
sg24
F-3.8625991997135154
sg25
F1.7102203449582229
sg26
I1
sg27
g1173
sg29
I344
sS'y'
F2.8900459999999999
sS'x'
F-0.26508799999999999
sS'z'
F0.82510899999999998
sg30
g1166
sg46
g1174
sbag2
(g19
g4
NtRp2915
(dp2916
g22
I4
sg23
F-0.2901642834612787
sg24
F2.6653386876569765
sg25
F-1.9928312998346256
sg26
I1
sg27
g1177
sg29
I344
sS'y'
F0.055690000000000003
sS'x'
F1.2691170000000001
sS'z'
F2.8063060000000002
sg30
g1166
sg46
g1178
sbag2
(g19
g4
NtRp2917
(dp2918
g22
I5
sg23
F-10.652156136972545
sg24
F-12.142083366097118
sg25
F-8.4139572095660444
sg26
I1
sg27
g1181
sg29
I352
sS'y'
F4.1014499999999998
sS'x'
F3.442787
sS'z'
F3.005204
sg30
g1182
sg46
g1186
sbasg1640
(lp2919
sg1654
g2064
sg1656
(lp2920
sbag2
(g1647
g4
NtRp2921
(dp2922
g11
g2069
sg13
(lp2923
sg1653
F26.922595246310486
sg17
(lp2924
g2
(g19
g4
NtRp2925
(dp2926
g22
I1
sg23
F10.387642697701446
sg24
F20.902865613639928
sg25
F8.9351277596122731
sg26
I1
sg27
g1189
sg29
I907
sS'y'
F0.29938199999999998
sS'x'
F0.42917499999999997
sS'z'
F0.37076900000000002
sg30
g139
sg46
g1190
sbag2
(g19
g4
NtRp2927
(dp2928
g22
I2
sg23
F-6.0802421732223033
sg24
F3.1059054070904901
sg25
F0.96853921401741627
sg26
I1
sg27
g1193
sg29
I344
sS'y'
F0.37412600000000001
sS'x'
F3.042103
sS'z'
F0.82242400000000004
sg30
g1194
sg46
g1198
sbag2
(g19
g4
NtRp2929
(dp2930
g22
I3
sg23
F2.3047502796654573
sg24
F-11.833211432346054
sg25
F4.6246445856003557
sg26
I1
sg27
g1201
sg29
I344
sS'y'
F2.9453819999999999
sS'x'
F0.39521000000000001
sS'z'
F-0.17200299999999999
sg30
g1194
sg46
g1202
sbag2
(g19
g4
NtRp2931
(dp2932
g22
I4
sg23
F2.0906284108380873
sg24
F-0.26011428254611618
sg25
F-5.4854938236334601
sg26
I1
sg27
g1205
sg29
I344
sS'y'
F0.66976800000000003
sS'x'
F-0.142455
sS'z'
F2.8753790000000001
sg30
g1194
sg46
g1206
sbag2
(g19
g4
NtRp2933
(dp2934
g22
I5
sg23
F-9.6385633826679538
sg24
F-12.235065877585852
sg25
F-9.581672550990751
sg26
I1
sg27
g1209
sg29
I352
sS'y'
F4.1271659999999999
sS'x'
F3.4086979999999998
sS'z'
F3.0564870000000002
sg30
g1210
sg46
g1214
sbasg1640
(lp2935
sg1654
g2072
sg1656
(lp2936
sbag2
(g1647
g4
NtRp2937
(dp2938
g11
g2077
sg13
(lp2939
sg1653
F32.381256662073653
sg17
(lp2940
g2
(g19
g4
NtRp2941
(dp2942
g22
I1
sg23
F0.91829170563884222
sg24
F19.756153616554002
sg25
F-14.979233207095557
sg26
I1
sg27
g1217
sg29
I907
sS'y'
F0.23491999999999999
sS'x'
F0.42552400000000001
sS'z'
F0.64988500000000005
sg30
g139
sg46
g1218
sbag2
(g19
g4
NtRp2943
(dp2944
g22
I2
sg23
F-2.9924232064248426
sg24
F-3.0524435798429601
sg25
F5.1177742485533813
sg26
I1
sg27
g1221
sg29
I344
sS'y'
F0.903173
sS'x'
F2.659135
sS'z'
F-0.52162900000000001
sg30
g1222
sg46
g1226
sbag2
(g19
g4
NtRp2945
(dp2946
g22
I3
sg23
F3.6852524274269864
sg24
F-12.735210536613685
sg25
F5.0980915474549038
sg26
I1
sg27
g1229
sg29
I344
sS'y'
F2.528235
sS'x'
F-0.678535
sS'z'
F-0.091366000000000003
sg30
g1222
sg46
g1230
sbag2
(g19
g4
NtRp2947
(dp2948
g22
I4
sg23
F7.3555120208266329
sg24
F7.0808997584549056
sg25
F11.031001724120991
sg26
I1
sg27
g1233
sg29
I344
sS'y'
F1.1931240000000001
sS'x'
F1.161592
sS'z'
F2.9169100000000001
sg30
g1222
sg46
g1234
sbag2
(g19
g4
NtRp2949
(dp2950
g22
I5
sg23
F-9.6569370767187852
sg24
F-11.978008468976908
sg25
F-6.206348345657652
sg26
I1
sg27
g1237
sg29
I352
sS'y'
F4.4323600000000001
sS'x'
F3.7012139999999998
sS'z'
F3.21949
sg30
g1238
sg46
g1242
sbasg1640
(lp2951
sg1654
g2080
sg1656
(lp2952
sbag2
(g1647
g4
NtRp2953
(dp2954
g11
g2085
sg13
(lp2955
sg1653
F33.087004861289167
sg17
(lp2956
g2
(g19
g4
NtRp2957
(dp2958
g22
I1
sg23
F2.4833592118516559
sg24
F14.911448172956161
sg25
F22.207268885205014
sg26
I1
sg27
g1245
sg29
I907
sS'y'
F0.36022599999999999
sS'x'
F0.54872900000000002
sS'z'
F0.22644300000000001
sg30
g139
sg46
g1246
sbag2
(g19
g4
NtRp2959
(dp2960
g22
I2
sg23
F-1.402096113365213
sg24
F3.4746356933503622
sg25
F0.68662092506044914
sg26
I1
sg27
g1249
sg29
I344
sS'y'
F0.97532200000000002
sS'x'
F3.068997
sS'z'
F0.85893900000000001
sg30
g1250
sg46
g1254
sbag2
(g19
g4
NtRp2961
(dp2962
g22
I3
sg23
F3.4787676599453512
sg24
F-5.5410801495355431
sg25
F-2.5208705557843212
sg26
I1
sg27
g1257
sg29
I344
sS'y'
F2.88713
sS'x'
F-0.13581399999999999
sS'z'
F0.329121
sg30
g1250
sg46
g1258
sbag2
(g19
g4
NtRp2963
(dp2964
g22
I4
sg23
F3.1941083236917365
sg24
F-1.3407299697402901
sg25
F-12.22978547225536
sg26
I1
sg27
g1261
sg29
I344
sS'y'
F0.055695000000000001
sS'x'
F-0.12218999999999999
sS'z'
F2.7442859999999998
sg30
g1250
sg46
g1262
sbag2
(g19
g4
NtRp2965
(dp2966
g22
I5
sg23
F-7.8926593278166468
sg24
F-11.738616173963372
sg25
F-8.4375742635693332
sg26
I1
sg27
g1265
sg29
I352
sS'y'
F4.477417
sS'x'
F3.7445040000000001
sS'z'
F3.2052230000000002
sg30
g1266
sg46
g1270
sbasg1640
(lp2967
sg1654
g2088
sg1656
(lp2968
sbag2
(g1647
g4
NtRp2969
(dp2970
g11
g2093
sg13
(lp2971
sg1653
F33.671440493632858
sg17
(lp2972
g2
(g19
g4
NtRp2973
(dp2974
g22
I1
sg23
F10.490029565150889
sg24
F1.0294772185604564
sg25
F5.3892086077777845
sg26
I1
sg27
g1273
sg29
I907
sS'y'
F0.37476300000000001
sS'x'
F0.34335199999999999
sS'z'
F0.44262200000000002
sg30
g139
sg46
g1274
sbag2
(g19
g4
NtRp2975
(dp2976
g22
I2
sg23
F-2.6135860158809163
sg24
F0.84206752781788163
sg25
F0.4669077773219546
sg26
I1
sg27
g1277
sg29
I344
sS'y'
F0.40940100000000001
sS'x'
F2.9410829999999999
sS'z'
F0.17486399999999999
sg30
g1278
sg46
g1282
sbag2
(g19
g4
NtRp2977
(dp2978
g22
I3
sg23
F0.073480253789025521
sg24
F6.2097542093251121
sg25
F0.12769414691507991
sg26
I1
sg27
g1285
sg29
I344
sS'y'
F2.8843049999999999
sS'x'
F0.15549399999999999
sS'z'
F0.026232999999999999
sg30
g1278
sg46
g1286
sbag2
(g19
g4
NtRp2979
(dp2980
g22
I4
sg23
F0.48624039064526181
sg24
F1.8993338527294543
sg25
F0.66399747479260562
sg26
I1
sg27
g1289
sg29
I344
sS'y'
F0.67259800000000003
sS'x'
F0.55534300000000003
sS'z'
F3.0142760000000002
sg30
g1278
sg46
g1290
sbag2
(g19
g4
NtRp2981
(dp2982
g22
I5
sg23
F-8.6290445705198522
sg24
F-10.559774656830779
sg25
F-7.0924205816900772
sg26
I1
sg27
g1293
sg29
I352
sS'y'
F4.3941160000000004
sS'x'
F3.7651309999999998
sS'z'
F3.2426759999999999
sg30
g1294
sg46
g1298
sbasg1640
(lp2983
sg1654
g2096
sg1656
(lp2984
sbag2
(g1647
g4
NtRp2985
(dp2986
g11
g2101
sg13
(lp2987
sg1653
F34.061908692045165
sg17
(lp2988
g2
(g19
g4
NtRp2989
(dp2990
g22
I1
sg23
F5.5863982806931238
sg24
F4.1804757097832788
sg25
F10.209360553631859
sg26
I1
sg27
g1301
sg29
I907
sS'y'
F0.39774700000000002
sS'x'
F0.44112800000000002
sS'z'
F0.25836900000000002
sg30
g139
sg46
g1302
sbag2
(g19
g4
NtRp2991
(dp2992
g22
I2
sg23
F1.8687832512567539
sg24
F1.6321678844685799
sg25
F-1.2671159750336556
sg26
I1
sg27
g1305
sg29
I344
sS'y'
F0.25993500000000003
sS'x'
F2.9605679999999999
sS'z'
F0.87609700000000001
sg30
g1306
sg46
g1310
sbag2
(g19
g4
NtRp2993
(dp2994
g22
I3
sg23
F2.6604242810802536
sg24
F6.1092516414342839
sg25
F-1.0372821239309178
sg26
I1
sg27
g1313
sg29
I344
sS'y'
F2.9776910000000001
sS'x'
F0.52542699999999998
sS'z'
F0.17278299999999999
sg30
g1306
sg46
g1314
sbag2
(g19
g4
NtRp2995
(dp2996
g22
I4
sg23
F-1.8401046123459945
sg24
F-1.8553344402691543
sg25
F-0.31230504932717207
sg26
I1
sg27
g1317
sg29
I344
sS'y'
F0.52125500000000002
sS'x'
F-0.17378299999999999
sS'z'
F2.7449539999999999
sg30
g1306
sg46
g1318
sbag2
(g19
g4
NtRp2997
(dp2998
g22
I5
sg23
F-8.628840608090707
sg24
F-10.588810277720734
sg25
F-8.2937480788520119
sg26
I1
sg27
g1321
sg29
I352
sS'y'
F4.4720589999999998
sS'x'
F3.6849750000000001
sS'z'
F3.2793049999999999
sg30
g1322
sg46
g1326
sbasg1640
(lp2999
sg1654
g2104
sg1656
(lp3000
sbag2
(g1647
g4
NtRp3001
(dp3002
g11
g2109
sg13
(lp3003
sg1653
F34.266156752639191
sg17
(lp3004
g2
(g19
g4
NtRp3005
(dp3006
g22
I1
sg23
F-2.1750433951431578
sg24
F11.109771594485238
sg25
F10.735046456318488
sg26
I1
sg27
g1329
sg29
I907
sS'y'
F0.33080100000000001
sS'x'
F0.39715099999999998
sS'z'
F0.41942499999999999
sg30
g139
sg46
g1330
sbag2
(g19
g4
NtRp3007
(dp3008
g22
I2
sg23
F6.9522904670240946
sg24
F1.5195967895056437
sg25
F0.4747682537239522
sg26
I1
sg27
g1333
sg29
I344
sS'y'
F0.46142699999999998
sS'x'
F2.942151
sS'z'
F0.36174499999999998
sg30
g1334
sg46
g1338
sbag2
(g19
g4
NtRp3009
(dp3010
g22
I3
sg23
F1.2338341185479029
sg24
F-2.3927982367583147
sg25
F0.74943179811174487
sg26
I1
sg27
g1341
sg29
I344
sS'y'
F2.7840790000000002
sS'x'
F0.068271999999999999
sS'z'
F-0.343391
sg30
g1334
sg46
g1342
sbag2
(g19
g4
NtRp3011
(dp3012
g22
I4
sg23
F2.4392394816573626
sg24
F-0.16100770322129299
sg25
F-5.8048343927511645
sg26
I1
sg27
g1345
sg29
I344
sS'y'
F1.011789
sS'x'
F0.32598100000000002
sS'z'
F2.9912920000000001
sg30
g1334
sg46
g1346
sbag2
(g19
g4
NtRp3013
(dp3014
g22
I5
sg23
F-8.6700592408680155
sg24
F-10.737165954481407
sg25
F-6.52714194831435
sg26
I1
sg27
g1349
sg29
I352
sS'y'
F4.46157
sS'x'
F3.7400519999999999
sS'z'
F3.2135940000000001
sg30
g1350
sg46
g1354
sbasg1640
(lp3015
sg1654
g2112
sg1656
(lp3016
sbag2
(g1647
g4
NtRp3017
(dp3018
g11
g2117
sg13
(lp3019
sg1653
F34.77083126535998
sg17
(lp3020
g2
(g19
g4
NtRp3021
(dp3022
g22
I1
sg23
F7.0705706162906576
sg24
F19.293474827459853
sg25
F8.0619982758019439
sg26
I1
sg27
g1357
sg29
I907
sS'y'
F0.34372799999999998
sS'x'
F0.39726800000000001
sS'z'
F0.33755600000000002
sg30
g139
sg46
g1358
sbag2
(g19
g4
NtRp3023
(dp3024
g22
I2
sg23
F-1.1270086382770441
sg24
F0.82416564799901981
sg25
F0.24475926446303739
sg26
I1
sg27
g1361
sg29
I344
sS'y'
F0.232485
sS'x'
F2.97526
sS'z'
F0.61863800000000002
sg30
g1362
sg46
g1366
sbag2
(g19
g4
NtRp3025
(dp3026
g22
I3
sg23
F1.7205519464584094
sg24
F-8.8497699650408563
sg25
F1.398015375425576
sg26
I1
sg27
g1369
sg29
I344
sS'y'
F2.9932979999999998
sS'x'
F0.46634199999999998
sS'z'
F-0.073136999999999994
sg30
g1362
sg46
g1370
sbag2
(g19
g4
NtRp3027
(dp3028
g22
I4
sg23
F1.10480836335905
sg24
F-1.4410710028971867
sg25
F-2.3378671009545533
sg26
I1
sg27
g1373
sg29
I344
sS'y'
F0.76699200000000001
sS'x'
F0.0026480000000000002
sS'z'
F2.8608570000000002
sg30
g1362
sg46
g1374
sbag2
(g19
g4
NtRp3029
(dp3030
g22
I5
sg23
F-8.4223451732097967
sg24
F-9.7771030184581118
sg25
F-7.7453575749263432
sg26
I1
sg27
g1377
sg29
I352
sS'y'
F4.432099
sS'x'
F3.7619099999999999
sS'z'
F3.2299570000000002
sg30
g1378
sg46
g1382
sbasg1640
(lp3031
sg1654
g2120
sg1656
(lp3032
sbag2
(g1647
g4
NtRp3033
(dp3034
g11
g2125
sg13
(lp3035
sg1653
F34.828737432176624
sg17
(lp3036
g2
(g19
g4
NtRp3037
(dp3038
g22
I1
sg23
F1.5202974986631066
sg24
F21.726966850516082
sg25
F1.2339439775822938
sg26
I1
sg27
g1385
sg29
I907
sS'y'
F0.23118900000000001
sS'x'
F0.486925
sS'z'
F0.384745
sg30
g139
sg46
g1386
sbag2
(g19
g4
NtRp3039
(dp3040
g22
I2
sg23
F1.236851073929131
sg24
F1.0522368560381172
sg25
F1.4950215360065957
sg26
I1
sg27
g1389
sg29
I344
sS'y'
F1.1453199999999999
sS'x'
F2.946612
sS'z'
F0.25304500000000002
sg30
g1390
sg46
g1394
sbag2
(g19
g4
NtRp3041
(dp3042
g22
I3
sg23
F4.0381097041972209
sg24
F-11.106718895727358
sg25
F-0.4946969915802894
sg26
I1
sg27
g1397
sg29
I344
sS'y'
F2.683265
sS'x'
F-0.49762299999999998
sS'z'
F0.13491700000000001
sg30
g1390
sg46
g1398
sbag2
(g19
g4
NtRp3043
(dp3044
g22
I4
sg23
F0.85356459723554412
sg24
F-1.3004288364648158
sg25
F5.2833480694251271
sg26
I1
sg27
g1401
sg29
I344
sS'y'
F0.46845100000000001
sS'x'
F0.50959399999999999
sS'z'
F2.9196650000000002
sg30
g1390
sg46
g1402
sbag2
(g19
g4
NtRp3045
(dp3046
g22
I5
sg23
F-7.9080147775285976
sg24
F-11.330711967457987
sg25
F-8.1595320445756645
sg26
I1
sg27
g1405
sg29
I352
sS'y'
F4.4781620000000002
sS'x'
F3.7311450000000002
sS'z'
F3.2401170000000001
sg30
g1406
sg46
g1410
sbasg1640
(lp3047
sg1654
g2128
sg1656
(lp3048
sbag2
(g1647
g4
NtRp3049
(dp3050
g11
g2133
sg13
(lp3051
sg1653
F39.227888044633026
sg17
(lp3052
g2
(g19
g4
NtRp3053
(dp3054
g22
I1
sg23
F1.0148846230772539
sg24
F3.2078947206325217
sg25
F-0.78246712929267215
sg26
I1
sg27
g1413
sg29
I907
sS'y'
F0.55539099999999997
sS'x'
F0.31337300000000001
sS'z'
F0.30956400000000001
sg30
g139
sg46
g1414
sbag2
(g19
g4
NtRp3055
(dp3056
g22
I2
sg23
F4.4855771305462362
sg24
F1.5374520996522301
sg25
F-1.7313249204971179
sg26
I1
sg27
g1417
sg29
I344
sS'y'
F0.44303399999999998
sS'x'
F2.8389060000000002
sS'z'
F-0.049250000000000002
sg30
g1418
sg46
g1422
sbag2
(g19
g4
NtRp3057
(dp3058
g22
I3
sg23
F3.7727176760556667
sg24
F5.1932869430961777
sg25
F2.8033696559356951
sg26
I1
sg27
g1425
sg29
I344
sS'y'
F3.0897939999999999
sS'x'
F0.33966600000000002
sS'z'
F0.98788100000000001
sg30
g1418
sg46
g1426
sbag2
(g19
g4
NtRp3059
(dp3060
g22
I4
sg23
F-1.1615992267063291
sg24
F-1.9024762650741625
sg25
F6.2767834897678707
sg26
I1
sg27
g1429
sg29
I344
sS'y'
F-0.28245599999999998
sS'x'
F0.48641600000000002
sS'z'
F2.6841059999999999
sg30
g1418
sg46
g1430
sbag2
(g19
g4
NtRp3061
(dp3062
g22
I5
sg23
F-8.3863508043647226
sg24
F-8.1376942454186416
sg25
F-6.8224099680884018
sg26
I1
sg27
g1433
sg29
I352
sS'y'
F4.799239
sS'x'
F3.9740790000000001
sS'z'
F3.4576220000000002
sg30
g1434
sg46
g1438
sbasg1640
(lp3063
sg1654
g2136
sg1656
(lp3064
sbag2
(g1647
g4
NtRp3065
(dp3066
g11
g2141
sg13
(lp3067
sg1653
F39.832424499019503
sg17
(lp3068
g2
(g19
g4
NtRp3069
(dp3070
g22
I1
sg23
F-10.161909103886888
sg24
F-8.1165520185611779
sg25
F7.0180613133306915
sg26
I1
sg27
g1441
sg29
I907
sS'y'
F0.47776999999999997
sS'x'
F0.53646199999999999
sS'z'
F0.25632700000000003
sg30
g139
sg46
g1442
sbag2
(g19
g4
NtRp3071
(dp3072
g22
I2
sg23
F16.219780847923548
sg24
F6.707999564947837
sg25
F4.0272391215578613
sg26
I1
sg27
g1445
sg29
I344
sS'y'
F0.90674900000000003
sS'x'
F2.970351
sS'z'
F0.819021
sg30
g1446
sg46
g1450
sbag2
(g19
g4
NtRp3073
(dp3074
g22
I3
sg23
F-0.29731819051381403
sg24
F11.535842475636391
sg25
F-0.1734975878216522
sg26
I1
sg27
g1453
sg29
I344
sS'y'
F2.8991600000000002
sS'x'
F-0.13609399999999999
sS'z'
F0.57230700000000001
sg30
g1446
sg46
g1454
sbag2
(g19
g4
NtRp3075
(dp3076
g22
I4
sg23
F1.0109989624152731
sg24
F-0.7393587209618796
sg25
F-4.4969516209215001
sg26
I1
sg27
g1457
sg29
I344
sS'y'
F-0.11724999999999999
sS'x'
F-0.082185999999999995
sS'z'
F2.6998359999999999
sg30
g1446
sg46
g1458
sbag2
(g19
g4
NtRp3077
(dp3078
g22
I5
sg23
F-6.8253635677030715
sg24
F-9.0827910360712796
sg25
F-6.4728119114477947
sg26
I1
sg27
g1461
sg29
I352
sS'y'
F4.7628199999999996
sS'x'
F3.9684949999999999
sS'z'
F3.478926
sg30
g1462
sg46
g1466
sbasg1640
(lp3079
sg1654
g2144
sg1656
(lp3080
sbag2
(g1647
g4
NtRp3081
(dp3082
g11
g2149
sg13
(lp3083
sg1653
F40.055102123547151
sg17
(lp3084
g2
(g19
g4
NtRp3085
(dp3086
g22
I1
sg23
F19.815679012447859
sg24
F4.1765443913243052
sg25
F6.4111328866936663
sg26
I1
sg27
g1469
sg29
I907
sS'y'
F0.51003500000000002
sS'x'
F0.23949899999999999
sS'z'
F0.42287799999999998
sg30
g139
sg46
g1470
sbag2
(g19
g4
NtRp3087
(dp3088
g22
I2
sg23
F-8.8229297591920428
sg24
F-0.64505378991402251
sg25
F1.2883325203195592
sg26
I1
sg27
g1473
sg29
I344
sS'y'
F0.76008900000000001
sS'x'
F2.6722670000000002
sS'z'
F-0.54604299999999995
sg30
g1474
sg46
g1478
sbag2
(g19
g4
NtRp3089
(dp3090
g22
I3
sg23
F0.9643979543579394
sg24
F3.1489195068842366
sg25
F2.2957664535490636
sg26
I1
sg27
g1481
sg29
I344
sS'y'
F3.0328970000000002
sS'x'
F0.175482
sS'z'
F1.075288
sg30
g1474
sg46
g1482
sbag2
(g19
g4
NtRp3091
(dp3092
g22
I4
sg23
F-3.9915179963191356
sg24
F1.6220708471731184
sg25
F-3.7293637076560442
sg26
I1
sg27
g1485
sg29
I344
sS'y'
F-0.21123400000000001
sS'x'
F1.185891
sS'z'
F2.7381449999999998
sg30
g1474
sg46
g1486
sbag2
(g19
g4
NtRp3093
(dp3094
g22
I5
sg23
F-8.0628971061692507
sg24
F-8.3574120414680664
sg25
F-6.3842621466595082
sg26
I1
sg27
g1489
sg29
I352
sS'y'
F4.753876
sS'x'
F4.0272430000000004
sS'z'
F3.437163
sg30
g1490
sg46
g1494
sbasg1640
(lp3095
sg1654
g2152
sg1656
(lp3096
sbag2
(g1647
g4
NtRp3097
(dp3098
g11
g2157
sg13
(lp3099
sg1653
F40.552987254049661
sg17
(lp3100
g2
(g19
g4
NtRp3101
(dp3102
g22
I1
sg23
F13.007500549088622
sg24
F5.2645112281077946
sg25
F5.8361982387518863
sg26
I1
sg27
g1497
sg29
I907
sS'y'
F0.29817199999999999
sS'x'
F0.37974400000000003
sS'z'
F0.50720299999999996
sg30
g139
sg46
g1498
sbag2
(g19
g4
NtRp3103
(dp3104
g22
I2
sg23
F-4.9445103806514075
sg24
F-0.17537889206561877
sg25
F0.83239917151198073
sg26
I1
sg27
g1501
sg29
I344
sS'y'
F0.37721700000000002
sS'x'
F2.998777
sS'z'
F0.96189499999999994
sg30
g1502
sg46
g1506
sbag2
(g19
g4
NtRp3105
(dp3106
g22
I3
sg23
F-1.2768511958693931
sg24
F3.4760427346985665
sg25
F-3.8573109100413356
sg26
I1
sg27
g1509
sg29
I344
sS'y'
F2.5161030000000002
sS'x'
F0.48731000000000002
sS'z'
F-0.71509800000000001
sg30
g1502
sg46
g1510
sbag2
(g19
g4
NtRp3107
(dp3108
g22
I4
sg23
F-0.01528112061136693
sg24
F0.34573257581420702
sg25
F3.1501311780637633
sg26
I1
sg27
g1513
sg29
I344
sS'y'
F1.4643250000000001
sS'x'
F-0.13392399999999999
sS'z'
F2.7491620000000001
sg30
g1502
sg46
g1514
sbag2
(g19
g4
NtRp3109
(dp3110
g22
I5
sg23
F-7.0331853423767665
sg24
F-9.6606168444796303
sg25
F-6.1945219244376011
sg26
I1
sg27
g1517
sg29
I352
sS'y'
F4.7365000000000004
sS'x'
F4.0043769999999999
sS'z'
F3.495835
sg30
g1518
sg46
g1522
sbasg1640
(lp3111
sg1654
g2160
sg1656
(lp3112
sbag2
(g1647
g4
NtRp3113
(dp3114
g11
g2165
sg13
(lp3115
sg1653
F41.460192971556637
sg17
(lp3116
g2
(g19
g4
NtRp3117
(dp3118
g22
I1
sg23
F12.900370433697292
sg24
F4.8710678801591989
sg25
F4.4391561271440381
sg26
I1
sg27
g1525
sg29
I907
sS'y'
F0.36165700000000001
sS'x'
F0.378243
sS'z'
F0.32255400000000001
sg30
g139
sg46
g1526
sbag2
(g19
g4
NtRp3119
(dp3120
g22
I2
sg23
F-3.485317580653251
sg24
F0.6637828615652962
sg25
F-2.6556835138185897
sg26
I1
sg27
g1529
sg29
I344
sS'y'
F0.00762
sS'x'
F2.8807849999999999
sS'z'
F1.0479430000000001
sg30
g1530
sg46
g1534
sbag2
(g19
g4
NtRp3121
(dp3122
g22
I3
sg23
F0.95803625941224213
sg24
F2.2990332093970562
sg25
F-0.32383145290705168
sg26
I1
sg27
g1537
sg29
I344
sS'y'
F2.8764729999999998
sS'x'
F0.79622599999999999
sS'z'
F-0.16758700000000001
sg30
g1530
sg46
g1538
sbag2
(g19
g4
NtRp3123
(dp3124
g22
I4
sg23
F-3.5961156200988955
sg24
F0.49592863033834261
sg25
F4.75154514370222
sg26
I1
sg27
g1541
sg29
I344
sS'y'
F0.83623800000000004
sS'x'
F-0.27985700000000002
sS'z'
F2.725349
sg30
g1530
sg46
g1542
sbag2
(g19
g4
NtRp3125
(dp3126
g22
I5
sg23
F-6.8729094955535759
sg24
F-8.6782089252156744
sg25
F-6.388646641046555
sg26
I1
sg27
g1545
sg29
I352
sS'y'
F4.7783439999999997
sS'x'
F4.0174019999999997
sS'z'
F3.4665979999999998
sg30
g1546
sg46
g1550
sbasg1640
(lp3127
sg1654
g2168
sg1656
(lp3128
sbag2
(g1647
g4
NtRp3129
(dp3130
g11
g2173
sg13
(lp3131
sg1653
F41.64788810839238
sg17
(lp3132
g2
(g19
g4
NtRp3133
(dp3134
g22
I1
sg23
F20.2937920756981
sg24
F8.6116408497094934
sg25
F9.0979046479205294
sg26
I1
sg27
g1553
sg29
I907
sS'y'
F0.40095999999999998
sS'x'
F0.228437
sS'z'
F0.37376300000000001
sg30
g139
sg46
g1554
sbag2
(g19
g4
NtRp3135
(dp3136
g22
I2
sg23
F-8.3073208028998184
sg24
F-1.2732111047625914
sg25
F-1.6743758651680809
sg26
I1
sg27
g1557
sg29
I344
sS'y'
F-0.26539800000000002
sS'x'
F2.758375
sS'z'
F0.51822199999999996
sg30
g1558
sg46
g1562
sbag2
(g19
g4
NtRp3137
(dp3138
g22
I3
sg23
F-2.3306014743574597
sg24
F1.3182484838687114
sg25
F-0.59311886758973897
sg26
I1
sg27
g1565
sg29
I344
sS'y'
F2.7998050000000001
sS'x'
F0.96098899999999998
sS'z'
F-0.30512400000000001
sg30
g1558
sg46
g1566
sbag2
(g19
g4
NtRp3139
(dp3140
g22
I4
sg23
F-1.8852520710441161
sg24
F0.092287026937898003
sg25
F-0.64177245354785506
sg26
I1
sg27
g1569
sg29
I344
sS'y'
F1.114163
sS'x'
F0.26633099999999998
sS'z'
F2.879902
sg30
g1558
sg46
g1570
sbag2
(g19
g4
NtRp3141
(dp3142
g22
I5
sg23
F-7.4452286693699614
sg24
F-8.5286457939575335
sg25
F-6.1205171063880615
sg26
I1
sg27
g1573
sg29
I352
sS'y'
F4.7342110000000002
sS'x'
F4.0207540000000002
sS'z'
F3.4319549999999999
sg30
g1574
sg46
g1578
sbasg1640
(lp3143
sg1654
g2176
sg1656
(lp3144
sbag2
(g1647
g4
NtRp3145
(dp3146
g11
g2181
sg13
(lp3147
sg1653
F42.791992609552949
sg17
(lp3148
g2
(g19
g4
NtRp3149
(dp3150
g22
I1
sg23
F6.9956963731836455
sg24
F12.169013695817343
sg25
F26.17498075628782
sg26
I1
sg27
g1581
sg29
I907
sS'y'
F0.416912
sS'x'
F0.35700300000000001
sS'z'
F0.30551699999999998
sg30
g139
sg46
g1582
sbag2
(g19
g4
NtRp3151
(dp3152
g22
I2
sg23
F1.2480670640162987
sg24
F0.62612222858926381
sg25
F-0.87784416124108189
sg26
I1
sg27
g1585
sg29
I344
sS'y'
F1.0487869999999999
sS'x'
F2.7350319999999999
sS'z'
F-0.40296500000000002
sg30
g1586
sg46
g1590
sbag2
(g19
g4
NtRp3153
(dp3154
g22
I3
sg23
F3.4012519963630594
sg24
F-8.0462797432026978
sg25
F-3.1660836795993443
sg26
I1
sg27
g1593
sg29
I344
sS'y'
F2.9202210000000002
sS'x'
F-0.251637
sS'z'
F1.0089669999999999
sg30
g1586
sg46
g1594
sbag2
(g19
g4
NtRp3155
(dp3156
g22
I4
sg23
F-4.1967982998747777
sg24
F3.3672301856946705
sg25
F-16.546967278537053
sg26
I1
sg27
g1597
sg29
I344
sS'y'
F-0.17688200000000001
sS'x'
F1.090506
sS'z'
F2.8592629999999999
sg30
g1586
sg46
g1598
sbag2
(g19
g4
NtRp3157
(dp3158
g22
I5
sg23
F-7.4307823237411137
sg24
F-8.3309416443278828
sg25
F-5.8983686848352512
sg26
I1
sg27
g1601
sg29
I352
sS'y'
F4.7609279999999998
sS'x'
F4.0244989999999996
sS'z'
F3.478723
sg30
g1602
sg46
g1606
sbasg1640
(lp3159
sg1654
g2184
sg1656
(lp3160
sbag2
(g1647
g4
NtRp3161
(dp3162
g11
g2189
sg13
(lp3163
sg1653
F42.838777406724518
sg17
(lp3164
g2
(g19
g4
NtRp3165
(dp3166
g22
I1
sg23
F19.929480568675796
sg24
F27.519810318086076
sg25
F6.570480987572477
sg26
I1
sg27
g1609
sg29
I907
sS'y'
F0.27385300000000001
sS'x'
F0.32613999999999999
sS'z'
F0.48713000000000001
sg30
g139
sg46
g1610
sbag2
(g19
g4
NtRp3167
(dp3168
g22
I2
sg23
F-13.128925226155689
sg24
F-3.2122989632262766
sg25
F4.0227768592687738
sg26
I1
sg27
g1613
sg29
I344
sS'y'
F0.61711199999999999
sS'x'
F2.84857
sS'z'
F-0.31534800000000002
sg30
g1614
sg46
g1618
sbag2
(g19
g4
NtRp3169
(dp3170
g22
I3
sg23
F1.5602134067272879
sg24
F-13.820515933168451
sg25
F1.6391072719715007
sg26
I1
sg27
g1621
sg29
I344
sS'y'
F2.840843
sS'x'
F-0.26612999999999998
sS'z'
F0.073934
sg30
g1614
sg46
g1622
sbag2
(g19
g4
NtRp3171
(dp3172
g22
I4
sg23
F-1.4074807286093605
sg24
F-1.6429082657842429
sg25
F-6.6942892259947131
sg26
I1
sg27
g1625
sg29
I344
sS'y'
F0.815465
sS'x'
F0.98706499999999997
sS'z'
F3.0135160000000001
sg30
g1614
sg46
g1626
sbag2
(g19
g4
NtRp3173
(dp3174
g22
I5
sg23
F-7.5349880847454695
sg24
F-9.4019942665735776
sg25
F-5.5416497846252168
sg26
I1
sg27
g1629
sg29
I352
sS'y'
F4.8155780000000004
sS'x'
F3.9785029999999999
sS'z'
F3.4794260000000001
sg30
g1630
sg46
g1634
sbasg1640
(lp3175
sg1654
g2192
sg1656
(lp3176
sbasa.